
./tests/bbl:	file format elf64-littleriscv

Disassembly of section .text:

0000000080000000 <reset_vector>:
80000000: 6f 00 80 1f  	j	0x800001f8 <do_reset>

0000000080000004 <trap_vector>:
80000004: 73 11 01 34  	csrrw	sp, mscratch, sp
80000008: 63 08 01 1a  	beqz	sp, 0x800001b8 <restore_regs+0x80>
8000000c: 23 38 a1 04  	sd	a0, 80(sp)
80000010: 23 3c b1 04  	sd	a1, 88(sp)
80000014: f3 25 20 34  	csrr	a1, mcause
80000018: 63 d2 05 08  	bgez	a1, 0x8000009c <trap_vector+0x98>
8000001c: 93 95 15 00  	slli	a1, a1, 1
80000020: 13 05 e0 00  	li	a0, 14
80000024: 63 12 b5 02  	bne	a0, a1, 0x80000048 <trap_vector+0x44>
80000028: 13 05 00 08  	li	a0, 128
8000002c: 73 30 45 30  	csrc	mie, a0
80000030: 13 05 00 02  	li	a0, 32
80000034: 73 20 45 34  	csrs	mip, a0
80000038: 03 35 01 05  	ld	a0, 80(sp)
8000003c: 83 35 81 05  	ld	a1, 88(sp)
80000040: 73 11 01 34  	csrrw	sp, mscratch, sp
80000044: 73 00 20 30  	mret	
80000048: 13 05 60 00  	li	a0, 6
8000004c: 63 12 b5 18  	bne	a0, a1, 0x800001d0 <restore_regs+0x98>
80000050: 03 35 01 10  	ld	a0, 256(sp)
80000054: 23 20 05 00  	sw	zero, 0(a0)
80000058: 0f 00 f0 0f  	fence
8000005c: 03 25 81 10  	lw	a0, 264(sp)
80000060: 23 24 01 10  	sw	zero, 264(sp)
80000064: 93 75 15 00  	andi	a1, a0, 1
80000068: 63 84 05 00  	beqz	a1, 0x80000070 <trap_vector+0x6c>
8000006c: 73 60 41 34  	csrsi	mip, 2
80000070: 93 75 25 00  	andi	a1, a0, 2
80000074: 63 84 05 00  	beqz	a1, 0x8000007c <trap_vector+0x78>
80000078: 0f 10 00 00  	fence.i	
8000007c: 93 75 45 00  	andi	a1, a0, 4
80000080: 63 84 05 00  	beqz	a1, 0x80000088 <trap_vector+0x84>
80000084: 73 00 00 12  	sfence.vma
80000088: 93 75 85 00  	andi	a1, a0, 8
8000008c: 63 86 05 00  	beqz	a1, 0x80000098 <trap_vector+0x94>
80000090: 73 00 50 10  	wfi	
80000094: 6f f0 5f ff  	j	0x80000088 <trap_vector+0x84>
80000098: 6f f0 1f fa  	j	0x80000038 <trap_vector+0x34>
8000009c: 23 34 11 00  	sd	ra, 8(sp)
800000a0: 23 3c 31 00  	sd	gp, 24(sp)
800000a4: 23 30 41 02  	sd	tp, 32(sp)
800000a8: 23 34 51 02  	sd	t0, 40(sp)
800000ac: 97 b2 00 00  	auipc	t0, 11
800000b0: 23 38 61 02  	sd	t1, 48(sp)
800000b4: 13 93 35 00  	slli	t1, a1, 3
800000b8: 23 3c 71 02  	sd	t2, 56(sp)
800000bc: 33 83 62 00  	add	t1, t0, t1
800000c0: 23 30 81 04  	sd	s0, 64(sp)
800000c4: 03 33 43 f5  	ld	t1, -172(t1)
800000c8: 23 34 91 04  	sd	s1, 72(sp)
800000cc: 13 05 01 00  	mv	a0, sp
800000d0: 23 30 c1 06  	sd	a2, 96(sp)
800000d4: 73 26 10 34  	csrr	a2, mepc
800000d8: 23 34 d1 06  	sd	a3, 104(sp)
800000dc: f3 12 00 34  	csrrw	t0, mscratch, zero
800000e0: 23 38 e1 06  	sd	a4, 112(sp)
800000e4: 23 3c f1 06  	sd	a5, 120(sp)
800000e8: 23 30 01 09  	sd	a6, 128(sp)
800000ec: 23 34 11 09  	sd	a7, 136(sp)
800000f0: 23 38 21 09  	sd	s2, 144(sp)
800000f4: 23 3c 31 09  	sd	s3, 152(sp)
800000f8: 23 30 41 0b  	sd	s4, 160(sp)
800000fc: 23 34 51 0b  	sd	s5, 168(sp)
80000100: 23 38 61 0b  	sd	s6, 176(sp)
80000104: 23 3c 71 0b  	sd	s7, 184(sp)
80000108: 23 30 81 0d  	sd	s8, 192(sp)
8000010c: 23 34 91 0d  	sd	s9, 200(sp)
80000110: 23 38 a1 0d  	sd	s10, 208(sp)
80000114: 23 3c b1 0d  	sd	s11, 216(sp)
80000118: 23 30 c1 0f  	sd	t3, 224(sp)
8000011c: 23 34 d1 0f  	sd	t4, 232(sp)
80000120: 23 38 e1 0f  	sd	t5, 240(sp)
80000124: 23 3c f1 0f  	sd	t6, 248(sp)
80000128: 23 38 51 00  	sd	t0, 16(sp)
8000012c: 23 30 01 00  	sd	zero, 0(sp)
80000130: e7 00 03 00  	jalr	t1

0000000080000134 <restore_mscratch>:
80000134: 73 10 01 34  	csrw	mscratch, sp

0000000080000138 <restore_regs>:
80000138: 83 30 81 00  	ld	ra, 8(sp)
8000013c: 83 31 81 01  	ld	gp, 24(sp)
80000140: 03 32 01 02  	ld	tp, 32(sp)
80000144: 83 32 81 02  	ld	t0, 40(sp)
80000148: 03 33 01 03  	ld	t1, 48(sp)
8000014c: 83 33 81 03  	ld	t2, 56(sp)
80000150: 03 34 01 04  	ld	s0, 64(sp)
80000154: 83 34 81 04  	ld	s1, 72(sp)
80000158: 03 35 01 05  	ld	a0, 80(sp)
8000015c: 83 35 81 05  	ld	a1, 88(sp)
80000160: 03 36 01 06  	ld	a2, 96(sp)
80000164: 83 36 81 06  	ld	a3, 104(sp)
80000168: 03 37 01 07  	ld	a4, 112(sp)
8000016c: 83 37 81 07  	ld	a5, 120(sp)
80000170: 03 38 01 08  	ld	a6, 128(sp)
80000174: 83 38 81 08  	ld	a7, 136(sp)
80000178: 03 39 01 09  	ld	s2, 144(sp)
8000017c: 83 39 81 09  	ld	s3, 152(sp)
80000180: 03 3a 01 0a  	ld	s4, 160(sp)
80000184: 83 3a 81 0a  	ld	s5, 168(sp)
80000188: 03 3b 01 0b  	ld	s6, 176(sp)
8000018c: 83 3b 81 0b  	ld	s7, 184(sp)
80000190: 03 3c 01 0c  	ld	s8, 192(sp)
80000194: 83 3c 81 0c  	ld	s9, 200(sp)
80000198: 03 3d 01 0d  	ld	s10, 208(sp)
8000019c: 83 3d 81 0d  	ld	s11, 216(sp)
800001a0: 03 3e 01 0e  	ld	t3, 224(sp)
800001a4: 83 3e 81 0e  	ld	t4, 232(sp)
800001a8: 03 3f 01 0f  	ld	t5, 240(sp)
800001ac: 83 3f 81 0f  	ld	t6, 248(sp)
800001b0: 03 31 01 01  	ld	sp, 16(sp)
800001b4: 73 00 20 30  	mret	
800001b8: 73 21 00 34  	csrr	sp, mscratch
800001bc: 13 01 01 f0  	addi	sp, sp, -256
800001c0: 23 38 a1 04  	sd	a0, 80(sp)
800001c4: 23 3c b1 04  	sd	a1, 88(sp)
800001c8: 93 05 d0 00  	li	a1, 13
800001cc: 6f f0 1f ed  	j	0x8000009c <trap_vector+0x98>
800001d0: 93 05 00 00  	li	a1, 0
800001d4: 6f f0 9f ec  	j	0x8000009c <trap_vector+0x98>

00000000800001d8 <__redirect_trap>:
800001d8: b7 12 00 00  	lui	t0, 1
800001dc: 33 01 51 00  	add	sp, sp, t0
800001e0: b3 02 50 40  	neg	t0, t0
800001e4: 33 71 51 00  	and	sp, sp, t0
800001e8: 13 01 01 ec  	addi	sp, sp, -320
800001ec: 6f f0 9f f4  	j	0x80000134 <restore_mscratch>

00000000800001f0 <__trap_from_machine_mode>:
800001f0: ef 20 00 49  	jal	0x80002680 <trap_from_machine_mode>
800001f4: 6f f0 5f f4  	j	0x80000138 <restore_regs>

00000000800001f8 <do_reset>:
800001f8: 93 00 00 00  	li	ra, 0
800001fc: 13 01 00 00  	li	sp, 0
80000200: 93 01 00 00  	li	gp, 0
80000204: 13 02 00 00  	li	tp, 0
80000208: 93 02 00 00  	li	t0, 0
8000020c: 13 03 00 00  	li	t1, 0
80000210: 93 03 00 00  	li	t2, 0
80000214: 13 04 00 00  	li	s0, 0
80000218: 93 04 00 00  	li	s1, 0
8000021c: 13 06 00 00  	li	a2, 0
80000220: 93 06 00 00  	li	a3, 0
80000224: 13 07 00 00  	li	a4, 0
80000228: 93 07 00 00  	li	a5, 0
8000022c: 13 08 00 00  	li	a6, 0
80000230: 93 08 00 00  	li	a7, 0
80000234: 13 09 00 00  	li	s2, 0
80000238: 93 09 00 00  	li	s3, 0
8000023c: 13 0a 00 00  	li	s4, 0
80000240: 93 0a 00 00  	li	s5, 0
80000244: 13 0b 00 00  	li	s6, 0
80000248: 93 0b 00 00  	li	s7, 0
8000024c: 13 0c 00 00  	li	s8, 0
80000250: 93 0c 00 00  	li	s9, 0
80000254: 13 0d 00 00  	li	s10, 0
80000258: 93 0d 00 00  	li	s11, 0
8000025c: 13 0e 00 00  	li	t3, 0
80000260: 93 0e 00 00  	li	t4, 0
80000264: 13 0f 00 00  	li	t5, 0
80000268: 93 0f 00 00  	li	t6, 0
8000026c: 73 10 00 34  	csrw	mscratch, zero
80000270: 97 02 00 00  	auipc	t0, 0
80000274: 93 82 42 d9  	addi	t0, t0, -620
80000278: 73 90 52 30  	csrw	mtvec, t0
8000027c: 73 23 50 30  	csrr	t1, mtvec
80000280: 63 90 62 00  	bne	t0, t1, 0x80000280 <do_reset+0x88>
80000284: 17 d1 00 00  	auipc	sp, 13
80000288: 13 01 c1 c3  	addi	sp, sp, -964
8000028c: f3 26 40 f1  	csrr	a3, mhartid
80000290: 13 96 c6 00  	slli	a2, a3, 12
80000294: 33 01 c1 00  	add	sp, sp, a2
80000298: 63 94 06 00  	bnez	a3, 0x800002a0 <do_reset+0xa8>
8000029c: 6f 20 90 06  	j	0x80002b04 <init_first_hart>
800002a0: 13 06 80 00  	li	a2, 8
800002a4: 73 10 46 30  	csrw	mie, a2
800002a8: 73 00 50 10  	wfi	
800002ac: 6f f0 df ff  	j	0x800002a8 <do_reset+0xb0>

00000000800002b0 <boot_other_hart>:
800002b0: 13 01 01 fe  	addi	sp, sp, -32
800002b4: 23 3c 11 00  	sd	ra, 24(sp)
800002b8: 23 38 81 00  	sd	s0, 16(sp)
800002bc: 23 34 91 00  	sd	s1, 8(sp)
800002c0: 97 d7 00 00  	auipc	a5, 13
800002c4: 93 87 07 d4  	addi	a5, a5, -704
800002c8: 03 b4 07 00  	ld	s0, 0(a5)
800002cc: 0f 00 f0 0f  	fence
800002d0: e3 0c 04 fe  	beqz	s0, 0x800002c8 <boot_other_hart+0x18>
800002d4: f3 24 40 f1  	csrr	s1, mhartid
800002d8: 13 07 10 00  	li	a4, 1
800002dc: 3b 17 97 00  	sllw	a4, a4, s1
800002e0: 97 d7 00 00  	auipc	a5, 13
800002e4: 83 b7 87 d3  	ld	a5, -712(a5)
800002e8: 33 77 f7 00  	and	a4, a4, a5
800002ec: 63 08 07 00  	beqz	a4, 0x800002fc <boot_other_hart+0x4c>
800002f0: 73 00 50 10  	wfi	
800002f4: 33 40 00 02  	<unknown>
800002f8: 6f f0 9f ff  	j	0x800002f0 <boot_other_hart+0x40>
800002fc: 93 06 f0 ff  	li	a3, -1
80000300: 93 07 07 00  	mv	a5, a4
80000304: 93 08 07 00  	mv	a7, a4
80000308: 13 08 07 00  	mv	a6, a4
8000030c: 13 06 07 00  	mv	a2, a4
80000310: 17 03 00 00  	auipc	t1, 0
80000314: 13 03 c3 02  	addi	t1, t1, 44
80000318: 73 13 53 30  	csrrw	t1, mtvec, t1
8000031c: 73 90 06 3b  	csrw	pmpaddr0, a3
80000320: f3 27 00 3b  	csrr	a5, pmpaddr0
80000324: 73 90 16 3b  	csrw	pmpaddr1, a3
80000328: f3 28 10 3b  	csrr	a7, pmpaddr1
8000032c: 73 90 26 3b  	csrw	pmpaddr2, a3
80000330: 73 28 20 3b  	csrr	a6, pmpaddr2
80000334: 73 90 36 3b  	csrw	pmpaddr3, a3
80000338: 73 26 30 3b  	csrr	a2, pmpaddr3
8000033c: 73 10 53 30  	csrw	mtvec, t1
80000340: b3 f7 17 01  	and	a5, a5, a7
80000344: b3 f7 07 01  	and	a5, a5, a6
80000348: b3 f7 c7 00  	and	a5, a5, a2
8000034c: 63 80 07 06  	beqz	a5, 0x800003ac <boot_other_hart+0xfc>
80000350: 97 07 00 00  	auipc	a5, 0
80000354: 93 87 07 cb  	addi	a5, a5, -848
80000358: 17 e6 00 00  	auipc	a2, 14
8000035c: 13 06 86 ca  	addi	a2, a2, -856
80000360: 37 18 1f 00  	lui	a6, 497
80000364: 93 d7 27 00  	srli	a5, a5, 2
80000368: 13 56 26 00  	srli	a2, a2, 2
8000036c: 13 08 08 80  	addi	a6, a6, -2048
80000370: 73 90 07 3b  	csrw	pmpaddr0, a5
80000374: 73 10 16 3b  	csrw	pmpaddr1, a2
80000378: 73 90 26 3b  	csrw	pmpaddr2, a3
8000037c: 73 10 37 3b  	csrw	pmpaddr3, a4
80000380: 73 10 08 3a  	csrw	pmpcfg0, a6
80000384: 97 d7 00 00  	auipc	a5, 13
80000388: 83 b7 c7 cb  	ld	a5, -836(a5)
8000038c: 63 84 07 02  	beqz	a5, 0x800003b4 <boot_other_hart+0x104>
80000390: 13 86 f7 ff  	addi	a2, a5, -1
80000394: 13 56 56 01  	srli	a2, a2, 21
80000398: 13 06 16 00  	addi	a2, a2, 1
8000039c: 13 16 56 01  	slli	a2, a2, 21
800003a0: 93 85 04 00  	mv	a1, s1
800003a4: 13 05 04 00  	mv	a0, s0
800003a8: ef 20 d0 0d  	jal	0x80002c84 <enter_supervisor_mode>
800003ac: ef 20 50 0b  	jal	0x80002c60 <setup_pmp>
800003b0: 6f f0 5f fd  	j	0x80000384 <boot_other_hart+0xd4>
800003b4: 17 e6 00 00  	auipc	a2, 14
800003b8: 13 06 f6 de  	addi	a2, a2, -529
800003bc: 13 56 56 01  	srli	a2, a2, 21
800003c0: 13 06 16 00  	addi	a2, a2, 1
800003c4: 13 16 56 01  	slli	a2, a2, 21
800003c8: 6f f0 9f fd  	j	0x800003a0 <boot_other_hart+0xf0>

00000000800003cc <boot_loader>:
800003cc: 13 01 01 fe  	addi	sp, sp, -32
800003d0: 23 38 81 00  	sd	s0, 16(sp)
800003d4: 23 34 91 00  	sd	s1, 8(sp)
800003d8: 23 3c 11 00  	sd	ra, 24(sp)
800003dc: 17 d4 00 00  	auipc	s0, 13
800003e0: 03 34 44 c6  	ld	s0, -924(s0)
800003e4: 93 04 05 00  	mv	s1, a0
800003e8: 63 06 04 08  	beqz	s0, 0x80000474 <boot_loader+0xa8>
800003ec: 13 04 f4 ff  	addi	s0, s0, -1
800003f0: 13 54 54 01  	srli	s0, s0, 21
800003f4: 13 04 14 00  	addi	s0, s0, 1
800003f8: 13 14 54 01  	slli	s0, s0, 21
800003fc: 13 85 04 00  	mv	a0, s1
80000400: ef 10 c0 52  	jal	0x8000192c <fdt_size>
80000404: 13 16 05 02  	slli	a2, a0, 32
80000408: 13 56 06 02  	srli	a2, a2, 32
8000040c: 93 85 04 00  	mv	a1, s1
80000410: 13 05 04 00  	mv	a0, s0
80000414: ef 80 80 0f  	jal	0x8000850c <memcpy>
80000418: 97 d5 00 00  	auipc	a1, 13
8000041c: 93 85 05 c0  	addi	a1, a1, -1024
80000420: 13 05 04 00  	mv	a0, s0
80000424: ef 10 d0 64  	jal	0x80002270 <filter_harts>
80000428: 13 05 04 00  	mv	a0, s0
8000042c: ef 10 90 52  	jal	0x80002154 <filter_plic>
80000430: 13 05 04 00  	mv	a0, s0
80000434: 97 95 00 00  	auipc	a1, 9
80000438: 93 85 c5 a0  	addi	a1, a1, -1524
8000043c: ef 10 90 56  	jal	0x800021a4 <filter_compat>
80000440: 97 95 00 00  	auipc	a1, 9
80000444: 93 85 05 a1  	addi	a1, a1, -1520
80000448: 13 05 04 00  	mv	a0, s0
8000044c: ef 10 90 55  	jal	0x800021a4 <filter_compat>
80000450: ef 00 80 04  	jal	0x80000498 <print_logo>
80000454: 0f 00 f0 0f  	fence
80000458: 97 d7 00 00  	auipc	a5, 13
8000045c: 83 b7 87 bf  	ld	a5, -1032(a5)
80000460: 63 86 07 02  	beqz	a5, 0x8000048c <boot_loader+0xc0>
80000464: 13 05 00 00  	li	a0, 0
80000468: 17 d7 00 00  	auipc	a4, 13
8000046c: 23 3c f7 b8  	sd	a5, -1128(a4)
80000470: ef f0 1f e4  	jal	0x800002b0 <boot_other_hart>
80000474: 17 e4 00 00  	auipc	s0, 14
80000478: 13 04 f4 d2  	addi	s0, s0, -721
8000047c: 13 54 54 01  	srli	s0, s0, 21
80000480: 13 04 14 00  	addi	s0, s0, 1
80000484: 13 14 54 01  	slli	s0, s0, 21
80000488: 6f f0 5f f7  	j	0x800003fc <boot_loader+0x30>
8000048c: 97 e7 00 00  	auipc	a5, 14
80000490: 93 87 47 b7  	addi	a5, a5, -1164
80000494: 6f f0 1f fd  	j	0x80000464 <boot_loader+0x98>

0000000080000498 <print_logo>:
80000498: 17 85 00 00  	auipc	a0, 8
8000049c: 13 05 05 25  	addi	a0, a0, 592
800004a0: 6f 20 80 04  	j	0x800024e8 <putstring>

00000000800004a4 <hart_open>:
800004a4: 83 b7 05 00  	ld	a5, 0(a1)
800004a8: 63 8c 07 00  	beqz	a5, 0x800004c0 <hart_open+0x1c>
800004ac: 83 b7 05 01  	ld	a5, 16(a1)
800004b0: 63 84 07 00  	beqz	a5, 0x800004b8 <hart_open+0x14>
800004b4: 67 80 00 00  	ret
800004b8: 23 bc 05 00  	sd	zero, 24(a1)
800004bc: 67 80 00 00  	ret
800004c0: 93 07 f0 ff  	li	a5, -1
800004c4: 23 a4 f5 00  	sw	a5, 8(a1)
800004c8: 6f f0 5f fe  	j	0x800004ac <hart_open+0x8>

00000000800004cc <hart_close>:
800004cc: 83 b7 05 00  	ld	a5, 0(a1)
800004d0: 63 8a a7 00  	beq	a5, a0, 0x800004e4 <hart_close+0x18>
800004d4: 83 b7 05 01  	ld	a5, 16(a1)
800004d8: 63 8c a7 00  	beq	a5, a0, 0x800004f0 <hart_close+0x24>
800004dc: 13 05 00 00  	li	a0, 0
800004e0: 67 80 00 00  	ret
800004e4: 83 b7 05 01  	ld	a5, 16(a1)
800004e8: 23 b0 05 00  	sd	zero, 0(a1)
800004ec: e3 98 a7 fe  	bne	a5, a0, 0x800004dc <hart_close+0x10>
800004f0: 23 b8 05 00  	sd	zero, 16(a1)
800004f4: 13 05 00 00  	li	a0, 0
800004f8: 67 80 00 00  	ret

00000000800004fc <clint_open>:
800004fc: 23 a0 05 00  	sw	zero, 0(a1)
80000500: 23 b4 05 00  	sd	zero, 8(a1)
80000504: 23 b8 05 00  	sd	zero, 16(a1)
80000508: 67 80 00 00  	ret

000000008000050c <plic_open>:
8000050c: 23 a0 05 00  	sw	zero, 0(a1)
80000510: 23 b4 05 00  	sd	zero, 8(a1)
80000514: 23 b8 05 00  	sd	zero, 16(a1)
80000518: 67 80 00 00  	ret

000000008000051c <plic_redact>:
8000051c: 83 a7 05 00  	lw	a5, 0(a1)
80000520: 63 82 07 08  	beqz	a5, 0x800005a4 <plic_redact+0x88>
80000524: 83 a7 85 01  	lw	a5, 24(a1)
80000528: 13 07 10 00  	li	a4, 1
8000052c: 23 ae e5 00  	sw	a4, 28(a1)
80000530: 1b d6 f7 41  	sraiw	a2, a5, 31
80000534: 1b 56 e6 01  	srliw	a2, a2, 30
80000538: 3b 06 f6 00  	addw	a2, a2, a5
8000053c: 1b 56 26 40  	sraiw	a2, a2, 2
80000540: 13 16 26 00  	slli	a2, a2, 2
80000544: 83 b6 05 01  	ld	a3, 16(a1)
80000548: 63 5e c0 04  	blez	a2, 0x800005a4 <plic_redact+0x88>
8000054c: 37 05 01 ff  	lui	a0, 1044496
80000550: b7 05 ff 00  	lui	a1, 4080
80000554: 33 86 c6 00  	add	a2, a3, a2
80000558: 13 05 05 f0  	addi	a0, a0, -256
8000055c: 93 85 f5 0f  	addi	a1, a1, 255
80000560: 13 08 b0 00  	li	a6, 11
80000564: 93 08 f0 ff  	li	a7, -1
80000568: 03 a7 46 00  	lw	a4, 4(a3)
8000056c: 9b 17 87 00  	slliw	a5, a4, 8
80000570: 1b 57 87 00  	srliw	a4, a4, 8
80000574: 33 77 b7 00  	and	a4, a4, a1
80000578: b3 f7 a7 00  	and	a5, a5, a0
8000057c: b3 e7 e7 00  	or	a5, a5, a4
80000580: 1b 97 07 01  	slliw	a4, a5, 16
80000584: 9b d7 07 01  	srliw	a5, a5, 16
80000588: b3 67 f7 00  	or	a5, a4, a5
8000058c: 9b 87 07 00  	sext.w	a5, a5
80000590: 63 94 07 01  	bne	a5, a6, 0x80000598 <plic_redact+0x7c>
80000594: 23 a2 16 01  	sw	a7, 4(a3)
80000598: 93 86 86 00  	addi	a3, a3, 8
8000059c: b3 07 d6 40  	sub	a5, a2, a3
800005a0: e3 44 f0 fc  	bgtz	a5, 0x80000568 <plic_redact+0x4c>
800005a4: 67 80 00 00  	ret

00000000800005a8 <compat_open>:
800005a8: 83 a7 85 00  	lw	a5, 8(a1)
800005ac: 9b 87 17 00  	addiw	a5, a5, 1
800005b0: 23 a4 f5 00  	sw	a5, 8(a1)
800005b4: 67 80 00 00  	ret

00000000800005b8 <compat_close>:
800005b8: 83 a7 85 00  	lw	a5, 8(a1)
800005bc: 03 a7 c5 00  	lw	a4, 12(a1)
800005c0: 13 05 00 00  	li	a0, 0
800005c4: 9b 86 f7 ff  	addiw	a3, a5, -1
800005c8: 23 a4 d5 00  	sw	a3, 8(a1)
800005cc: 63 04 f7 00  	beq	a4, a5, 0x800005d4 <compat_close+0x1c>
800005d0: 67 80 00 00  	ret
800005d4: 93 07 70 3e  	li	a5, 999
800005d8: 23 a6 f5 00  	sw	a5, 12(a1)
800005dc: 13 05 f0 ff  	li	a0, -1
800005e0: 67 80 00 00  	ret

00000000800005e4 <chosen_close>:
800005e4: 83 b7 05 00  	ld	a5, 0(a1)
800005e8: 63 84 07 00  	beqz	a5, 0x800005f0 <chosen_close+0xc>
800005ec: 63 86 a7 00  	beq	a5, a0, 0x800005f8 <chosen_close+0x14>
800005f0: 13 05 00 00  	li	a0, 0
800005f4: 67 80 00 00  	ret
800005f8: 23 b0 05 00  	sd	zero, 0(a1)
800005fc: 13 05 00 00  	li	a0, 0
80000600: 67 80 00 00  	ret

0000000080000604 <hart_filter_open>:
80000604: 93 07 f0 ff  	li	a5, -1
80000608: 93 97 07 02  	slli	a5, a5, 32
8000060c: 23 b0 f5 00  	sd	a5, 0(a1)
80000610: 23 b4 05 00  	sd	zero, 8(a1)
80000614: 23 b8 05 00  	sd	zero, 16(a1)
80000618: 67 80 00 00  	ret

000000008000061c <mem_done>:
8000061c: 83 a7 05 00  	lw	a5, 0(a1)
80000620: 63 80 07 18  	beqz	a5, 0x800007a0 <mem_done+0x184>
80000624: 83 b2 85 00  	ld	t0, 8(a1)
80000628: 13 01 01 fe  	addi	sp, sp, -32
8000062c: 23 3c 11 00  	sd	ra, 24(sp)
80000630: 23 38 81 00  	sd	s0, 16(sp)
80000634: 23 34 91 00  	sd	s1, 8(sp)
80000638: 63 86 02 16  	beqz	t0, 0x800007a4 <mem_done+0x188>
8000063c: 03 a7 05 01  	lw	a4, 16(a1)
80000640: 93 77 37 00  	andi	a5, a4, 3
80000644: 63 90 07 16  	bnez	a5, 0x800007a4 <mem_done+0x188>
80000648: 9b 57 f7 41  	sraiw	a5, a4, 31
8000064c: 9b d7 e7 01  	srliw	a5, a5, 30
80000650: bb 87 e7 00  	addw	a5, a5, a4
80000654: 9b d7 27 40  	sraiw	a5, a5, 2
80000658: 93 97 27 00  	slli	a5, a5, 2
8000065c: b3 88 f2 00  	add	a7, t0, a5
80000660: 63 5a f0 10  	blez	a5, 0x80000774 <mem_done+0x158>
80000664: 83 37 05 00  	ld	a5, 0(a0)
80000668: 97 df 00 00  	auipc	t6, 13
8000066c: 93 8f 0f 9d  	addi	t6, t6, -1584
80000670: 03 bf 0f 00  	ld	t5, 0(t6)
80000674: 03 a3 07 01  	lw	t1, 16(a5)
80000678: 03 ae 47 01  	lw	t3, 20(a5)
8000067c: 37 06 01 ff  	lui	a2, 1044496
80000680: 1b 05 f3 ff  	addiw	a0, t1, -1
80000684: 9b 05 fe ff  	addiw	a1, t3, -1
80000688: 13 15 05 02  	slli	a0, a0, 32
8000068c: 93 95 05 02  	slli	a1, a1, 32
80000690: 13 55 05 02  	srli	a0, a0, 32
80000694: 93 d5 05 02  	srli	a1, a1, 32
80000698: 13 05 15 00  	addi	a0, a0, 1
8000069c: 93 85 15 00  	addi	a1, a1, 1
800006a0: b7 06 ff 00  	lui	a3, 4080
800006a4: 17 08 00 00  	auipc	a6, 0
800006a8: 13 08 88 f7  	addi	a6, a6, -136
800006ac: 13 15 25 00  	slli	a0, a0, 2
800006b0: 93 95 25 00  	slli	a1, a1, 2
800006b4: 93 0e 00 00  	li	t4, 0
800006b8: 13 06 06 f0  	addi	a2, a2, -256
800006bc: 93 86 f6 0f  	addi	a3, a3, 255
800006c0: 63 56 60 0c  	blez	t1, 0x8000078c <mem_done+0x170>
800006c4: 33 84 a2 00  	add	s0, t0, a0
800006c8: 93 03 00 00  	li	t2, 0
800006cc: 03 a7 02 00  	lw	a4, 0(t0)
800006d0: 93 93 03 02  	slli	t2, t2, 32
800006d4: 93 82 42 00  	addi	t0, t0, 4
800006d8: 9b 17 87 00  	slliw	a5, a4, 8
800006dc: 1b 57 87 00  	srliw	a4, a4, 8
800006e0: 33 77 d7 00  	and	a4, a4, a3
800006e4: b3 f7 c7 00  	and	a5, a5, a2
800006e8: b3 e7 e7 00  	or	a5, a5, a4
800006ec: 1b 97 07 01  	slliw	a4, a5, 16
800006f0: 9b d7 07 01  	srliw	a5, a5, 16
800006f4: b3 67 f7 00  	or	a5, a4, a5
800006f8: 93 97 07 02  	slli	a5, a5, 32
800006fc: 93 d7 07 02  	srli	a5, a5, 32
80000700: b3 83 77 00  	add	t2, a5, t2
80000704: e3 94 82 fc  	bne	t0, s0, 0x800006cc <mem_done+0xb0>
80000708: 63 58 c0 09  	blez	t3, 0x80000798 <mem_done+0x17c>
8000070c: b3 84 b2 00  	add	s1, t0, a1
80000710: 93 07 00 00  	li	a5, 0
80000714: 03 a7 02 00  	lw	a4, 0(t0)
80000718: 13 94 07 02  	slli	s0, a5, 32
8000071c: 93 82 42 00  	addi	t0, t0, 4
80000720: 9b 17 87 00  	slliw	a5, a4, 8
80000724: 1b 57 87 00  	srliw	a4, a4, 8
80000728: 33 77 d7 00  	and	a4, a4, a3
8000072c: b3 f7 c7 00  	and	a5, a5, a2
80000730: b3 e7 e7 00  	or	a5, a5, a4
80000734: 1b 97 07 01  	slliw	a4, a5, 16
80000738: 9b d7 07 01  	srliw	a5, a5, 16
8000073c: b3 67 f7 00  	or	a5, a4, a5
80000740: 93 97 07 02  	slli	a5, a5, 32
80000744: 93 d7 07 02  	srli	a5, a5, 32
80000748: b3 87 87 00  	add	a5, a5, s0
8000074c: e3 94 92 fc  	bne	t0, s1, 0x80000714 <mem_done+0xf8>
80000750: 63 6a 78 00  	bltu	a6, t2, 0x80000764 <mem_done+0x148>
80000754: b3 83 f3 00  	add	t2, t2, a5
80000758: 63 e6 03 01  	bltu	t2, a6, 0x80000764 <mem_done+0x148>
8000075c: 13 8f 07 00  	mv	t5, a5
80000760: 93 0e 10 00  	li	t4, 1
80000764: b3 87 58 40  	sub	a5, a7, t0
80000768: e3 4c f0 f4  	bgtz	a5, 0x800006c0 <mem_done+0xa4>
8000076c: 63 84 0e 00  	beqz	t4, 0x80000774 <mem_done+0x158>
80000770: 23 b0 ef 01  	sd	t5, 0(t6)
80000774: 63 9e 58 04  	bne	a7, t0, 0x800007d0 <mem_done+0x1b4>
80000778: 83 30 81 01  	ld	ra, 24(sp)
8000077c: 03 34 01 01  	ld	s0, 16(sp)
80000780: 83 34 81 00  	ld	s1, 8(sp)
80000784: 13 01 01 02  	addi	sp, sp, 32
80000788: 67 80 00 00  	ret
8000078c: 93 03 00 00  	li	t2, 0
80000790: e3 4e c0 f7  	bgtz	t3, 0x8000070c <mem_done+0xf0>
80000794: 6f f0 1f fd  	j	0x80000764 <mem_done+0x148>
80000798: 93 07 00 00  	li	a5, 0
8000079c: 6f f0 5f fb  	j	0x80000750 <mem_done+0x134>
800007a0: 67 80 00 00  	ret
800007a4: 17 85 00 00  	auipc	a0, 8
800007a8: 13 05 45 70  	addi	a0, a0, 1796
800007ac: 97 86 00 00  	auipc	a3, 8
800007b0: 93 86 46 6b  	addi	a3, a3, 1716
800007b4: 13 06 90 0b  	li	a2, 185
800007b8: 97 85 00 00  	auipc	a1, 8
800007bc: 93 85 85 6d  	addi	a1, a1, 1752
800007c0: ef 10 d0 5a  	jal	0x8000256c <printm>
800007c4: 37 05 01 00  	lui	a0, 16
800007c8: 13 05 f5 ff  	addi	a0, a0, -1
800007cc: ef 10 90 63  	jal	0x80002604 <poweroff>
800007d0: 17 85 00 00  	auipc	a0, 8
800007d4: 13 05 85 6d  	addi	a0, a0, 1752
800007d8: 97 86 00 00  	auipc	a3, 8
800007dc: 93 86 06 6f  	addi	a3, a3, 1776
800007e0: 13 06 10 0c  	li	a2, 193
800007e4: 97 85 00 00  	auipc	a1, 8
800007e8: 93 85 c5 6a  	addi	a1, a1, 1708
800007ec: ef 10 10 58  	jal	0x8000256c <printm>
800007f0: 37 05 01 00  	lui	a0, 16
800007f4: 13 05 f5 ff  	addi	a0, a0, -1
800007f8: ef 10 d0 60  	jal	0x80002604 <poweroff>

00000000800007fc <mem_prop>:
800007fc: 13 01 01 fe  	addi	sp, sp, -32
80000800: 23 30 21 01  	sd	s2, 0(sp)
80000804: 03 39 85 00  	ld	s2, 8(a0)
80000808: 23 38 81 00  	sd	s0, 16(sp)
8000080c: 23 34 91 00  	sd	s1, 8(sp)
80000810: 13 04 05 00  	mv	s0, a0
80000814: 93 84 05 00  	mv	s1, a1
80000818: 13 05 09 00  	mv	a0, s2
8000081c: 97 85 00 00  	auipc	a1, 8
80000820: 93 85 c5 6b  	addi	a1, a1, 1724
80000824: 23 3c 11 00  	sd	ra, 24(sp)
80000828: ef 70 d0 5d  	jal	0x80008604 <strcmp>
8000082c: 63 1c 05 02  	bnez	a0, 0x80000864 <mem_prop+0x68>
80000830: 03 35 04 01  	ld	a0, 16(s0)
80000834: 97 85 00 00  	auipc	a1, 8
80000838: 93 85 45 6b  	addi	a1, a1, 1716
8000083c: ef 70 90 5c  	jal	0x80008604 <strcmp>
80000840: 63 12 05 02  	bnez	a0, 0x80000864 <mem_prop+0x68>
80000844: 93 07 10 00  	li	a5, 1
80000848: 23 a0 f4 00  	sw	a5, 0(s1)
8000084c: 83 30 81 01  	ld	ra, 24(sp)
80000850: 03 34 01 01  	ld	s0, 16(sp)
80000854: 83 34 81 00  	ld	s1, 8(sp)
80000858: 03 39 01 00  	ld	s2, 0(sp)
8000085c: 13 01 01 02  	addi	sp, sp, 32
80000860: 67 80 00 00  	ret
80000864: 97 85 00 00  	auipc	a1, 8
80000868: 93 85 c5 68  	addi	a1, a1, 1676
8000086c: 13 05 09 00  	mv	a0, s2
80000870: ef 70 50 59  	jal	0x80008604 <strcmp>
80000874: e3 1c 05 fc  	bnez	a0, 0x8000084c <mem_prop+0x50>
80000878: 03 37 04 01  	ld	a4, 16(s0)
8000087c: 83 27 84 01  	lw	a5, 24(s0)
80000880: 83 30 81 01  	ld	ra, 24(sp)
80000884: 03 34 01 01  	ld	s0, 16(sp)
80000888: 23 b4 e4 00  	sd	a4, 8(s1)
8000088c: 23 a8 f4 00  	sw	a5, 16(s1)
80000890: 03 39 01 00  	ld	s2, 0(sp)
80000894: 83 34 81 00  	ld	s1, 8(sp)
80000898: 13 01 01 02  	addi	sp, sp, 32
8000089c: 67 80 00 00  	ret

00000000800008a0 <chosen_open>:
800008a0: 13 01 01 fe  	addi	sp, sp, -32
800008a4: 23 38 81 00  	sd	s0, 16(sp)
800008a8: 13 04 05 00  	mv	s0, a0
800008ac: 03 35 85 00  	ld	a0, 8(a0)
800008b0: 23 34 91 00  	sd	s1, 8(sp)
800008b4: 93 84 05 00  	mv	s1, a1
800008b8: 97 85 00 00  	auipc	a1, 8
800008bc: 93 85 05 64  	addi	a1, a1, 1600
800008c0: 23 3c 11 00  	sd	ra, 24(sp)
800008c4: ef 70 10 54  	jal	0x80008604 <strcmp>
800008c8: 63 14 05 00  	bnez	a0, 0x800008d0 <chosen_open+0x30>
800008cc: 23 b0 84 00  	sd	s0, 0(s1)
800008d0: 83 30 81 01  	ld	ra, 24(sp)
800008d4: 03 34 01 01  	ld	s0, 16(sp)
800008d8: 83 34 81 00  	ld	s1, 8(sp)
800008dc: 13 01 01 02  	addi	sp, sp, 32
800008e0: 67 80 00 00  	ret

00000000800008e4 <hart_prop>:
800008e4: 13 01 01 fe  	addi	sp, sp, -32
800008e8: 23 30 21 01  	sd	s2, 0(sp)
800008ec: 03 39 85 00  	ld	s2, 8(a0)
800008f0: 23 38 81 00  	sd	s0, 16(sp)
800008f4: 23 34 91 00  	sd	s1, 8(sp)
800008f8: 13 04 05 00  	mv	s0, a0
800008fc: 93 84 05 00  	mv	s1, a1
80000900: 13 05 09 00  	mv	a0, s2
80000904: 97 85 00 00  	auipc	a1, 8
80000908: 93 85 45 5d  	addi	a1, a1, 1492
8000090c: 23 3c 11 00  	sd	ra, 24(sp)
80000910: ef 70 50 4f  	jal	0x80008604 <strcmp>
80000914: 63 10 05 04  	bnez	a0, 0x80000954 <hart_prop+0x70>
80000918: 03 35 04 01  	ld	a0, 16(s0)
8000091c: 97 85 00 00  	auipc	a1, 8
80000920: 93 85 45 5e  	addi	a1, a1, 1508
80000924: ef 70 10 4e  	jal	0x80008604 <strcmp>
80000928: 63 16 05 02  	bnez	a0, 0x80000954 <hart_prop+0x70>
8000092c: 83 b7 04 00  	ld	a5, 0(s1)
80000930: 63 92 07 1e  	bnez	a5, 0x80000b14 <hart_prop+0x230>
80000934: 83 37 04 00  	ld	a5, 0(s0)
80000938: 83 30 81 01  	ld	ra, 24(sp)
8000093c: 03 34 01 01  	ld	s0, 16(sp)
80000940: 23 b0 f4 00  	sd	a5, 0(s1)
80000944: 03 39 01 00  	ld	s2, 0(sp)
80000948: 83 34 81 00  	ld	s1, 8(sp)
8000094c: 13 01 01 02  	addi	sp, sp, 32
80000950: 67 80 00 00  	ret
80000954: 97 85 00 00  	auipc	a1, 8
80000958: 93 85 45 5c  	addi	a1, a1, 1476
8000095c: 13 05 09 00  	mv	a0, s2
80000960: ef 70 50 4a  	jal	0x80008604 <strcmp>
80000964: 63 16 05 02  	bnez	a0, 0x80000990 <hart_prop+0xac>
80000968: 83 b7 04 01  	ld	a5, 16(s1)
8000096c: 63 9e 07 16  	bnez	a5, 0x80000ae8 <hart_prop+0x204>
80000970: 83 37 04 00  	ld	a5, 0(s0)
80000974: 23 b8 f4 00  	sd	a5, 16(s1)
80000978: 83 30 81 01  	ld	ra, 24(sp)
8000097c: 03 34 01 01  	ld	s0, 16(sp)
80000980: 83 34 81 00  	ld	s1, 8(sp)
80000984: 03 39 01 00  	ld	s2, 0(sp)
80000988: 13 01 01 02  	addi	sp, sp, 32
8000098c: 67 80 00 00  	ret
80000990: 97 85 00 00  	auipc	a1, 8
80000994: 93 85 85 5b  	addi	a1, a1, 1464
80000998: 13 05 09 00  	mv	a0, s2
8000099c: ef 70 90 46  	jal	0x80008604 <strcmp>
800009a0: 63 0c 05 04  	beqz	a0, 0x800009f8 <hart_prop+0x114>
800009a4: 97 85 00 00  	auipc	a1, 8
800009a8: 93 85 c5 5b  	addi	a1, a1, 1468
800009ac: 13 05 09 00  	mv	a0, s2
800009b0: ef 70 50 45  	jal	0x80008604 <strcmp>
800009b4: 63 1c 05 08  	bnez	a0, 0x80000a4c <hart_prop+0x168>
800009b8: 83 37 04 01  	ld	a5, 16(s0)
800009bc: b7 06 01 ff  	lui	a3, 1044496
800009c0: 93 86 06 f0  	addi	a3, a3, -256
800009c4: 03 a7 07 00  	lw	a4, 0(a5)
800009c8: 9b 17 87 00  	slliw	a5, a4, 8
800009cc: b3 f7 d7 00  	and	a5, a5, a3
800009d0: b7 06 ff 00  	lui	a3, 4080
800009d4: 1b 57 87 00  	srliw	a4, a4, 8
800009d8: 93 86 f6 0f  	addi	a3, a3, 255
800009dc: 33 77 d7 00  	and	a4, a4, a3
800009e0: b3 e7 e7 00  	or	a5, a5, a4
800009e4: 1b 97 07 01  	slliw	a4, a5, 16
800009e8: 9b d7 07 01  	srliw	a5, a5, 16
800009ec: b3 67 f7 00  	or	a5, a4, a5
800009f0: 23 ae f4 00  	sw	a5, 28(s1)
800009f4: 6f f0 5f f8  	j	0x80000978 <hart_prop+0x94>
800009f8: 83 37 04 01  	ld	a5, 16(s0)
800009fc: b7 06 01 ff  	lui	a3, 1044496
80000a00: 93 86 06 f0  	addi	a3, a3, -256
80000a04: 03 a7 07 00  	lw	a4, 0(a5)
80000a08: 83 30 81 01  	ld	ra, 24(sp)
80000a0c: 03 34 01 01  	ld	s0, 16(sp)
80000a10: 9b 17 87 00  	slliw	a5, a4, 8
80000a14: b3 f7 d7 00  	and	a5, a5, a3
80000a18: b7 06 ff 00  	lui	a3, 4080
80000a1c: 1b 57 87 00  	srliw	a4, a4, 8
80000a20: 93 86 f6 0f  	addi	a3, a3, 255
80000a24: 33 77 d7 00  	and	a4, a4, a3
80000a28: b3 e7 e7 00  	or	a5, a5, a4
80000a2c: 1b 97 07 01  	slliw	a4, a5, 16
80000a30: 9b d7 07 01  	srliw	a5, a5, 16
80000a34: b3 67 f7 00  	or	a5, a4, a5
80000a38: 23 ac f4 00  	sw	a5, 24(s1)
80000a3c: 03 39 01 00  	ld	s2, 0(sp)
80000a40: 83 34 81 00  	ld	s1, 8(sp)
80000a44: 13 01 01 02  	addi	sp, sp, 32
80000a48: 67 80 00 00  	ret
80000a4c: 97 85 00 00  	auipc	a1, 8
80000a50: 93 85 45 4a  	addi	a1, a1, 1188
80000a54: 13 05 09 00  	mv	a0, s2
80000a58: ef 70 d0 3a  	jal	0x80008604 <strcmp>
80000a5c: 93 07 05 00  	mv	a5, a0
80000a60: e3 1c 05 f0  	bnez	a0, 0x80000978 <hart_prop+0x94>
80000a64: 03 37 04 00  	ld	a4, 0(s0)
80000a68: 03 36 04 01  	ld	a2, 16(s0)
80000a6c: 03 37 07 00  	ld	a4, 0(a4)
80000a70: 03 27 07 01  	lw	a4, 16(a4)
80000a74: 63 56 e0 06  	blez	a4, 0x80000ae0 <hart_prop+0x1fc>
80000a78: 9b 05 f7 ff  	addiw	a1, a4, -1
80000a7c: 93 95 05 02  	slli	a1, a1, 32
80000a80: 93 d5 05 02  	srli	a1, a1, 32
80000a84: 93 85 15 00  	addi	a1, a1, 1
80000a88: 93 95 25 00  	slli	a1, a1, 2
80000a8c: 37 08 01 ff  	lui	a6, 1044496
80000a90: 37 05 ff 00  	lui	a0, 4080
80000a94: b3 05 b6 00  	add	a1, a2, a1
80000a98: 13 08 08 f0  	addi	a6, a6, -256
80000a9c: 13 05 f5 0f  	addi	a0, a0, 255
80000aa0: 03 27 06 00  	lw	a4, 0(a2)
80000aa4: 93 96 07 02  	slli	a3, a5, 32
80000aa8: 13 06 46 00  	addi	a2, a2, 4
80000aac: 9b 17 87 00  	slliw	a5, a4, 8
80000ab0: 1b 57 87 00  	srliw	a4, a4, 8
80000ab4: 33 77 a7 00  	and	a4, a4, a0
80000ab8: b3 f7 07 01  	and	a5, a5, a6
80000abc: b3 e7 e7 00  	or	a5, a5, a4
80000ac0: 1b 97 07 01  	slliw	a4, a5, 16
80000ac4: 9b d7 07 01  	srliw	a5, a5, 16
80000ac8: b3 67 f7 00  	or	a5, a4, a5
80000acc: 93 97 07 02  	slli	a5, a5, 32
80000ad0: 93 d7 07 02  	srli	a5, a5, 32
80000ad4: b3 87 d7 00  	add	a5, a5, a3
80000ad8: e3 14 b6 fc  	bne	a2, a1, 0x80000aa0 <hart_prop+0x1bc>
80000adc: 9b 87 07 00  	sext.w	a5, a5
80000ae0: 23 a4 f4 00  	sw	a5, 8(s1)
80000ae4: 6f f0 5f e9  	j	0x80000978 <hart_prop+0x94>
80000ae8: 17 85 00 00  	auipc	a0, 8
80000aec: 13 05 05 3c  	addi	a0, a0, 960
80000af0: 97 86 00 00  	auipc	a3, 8
80000af4: 93 86 06 44  	addi	a3, a3, 1088
80000af8: 13 06 40 0f  	li	a2, 244
80000afc: 97 85 00 00  	auipc	a1, 8
80000b00: 93 85 45 39  	addi	a1, a1, 916
80000b04: ef 10 90 26  	jal	0x8000256c <printm>
80000b08: 37 05 01 00  	lui	a0, 16
80000b0c: 13 05 f5 ff  	addi	a0, a0, -1
80000b10: ef 10 50 2f  	jal	0x80002604 <poweroff>
80000b14: 17 85 00 00  	auipc	a0, 8
80000b18: 13 05 45 39  	addi	a0, a0, 916
80000b1c: 97 86 00 00  	auipc	a3, 8
80000b20: 93 86 c6 3e  	addi	a3, a3, 1004
80000b24: 13 06 10 0f  	li	a2, 241
80000b28: 6f f0 5f fd  	j	0x80000afc <hart_prop+0x218>

0000000080000b2c <hart_filter_prop>:
80000b2c: 13 01 01 fe  	addi	sp, sp, -32
80000b30: 23 30 21 01  	sd	s2, 0(sp)
80000b34: 03 39 85 00  	ld	s2, 8(a0)
80000b38: 23 38 81 00  	sd	s0, 16(sp)
80000b3c: 23 34 91 00  	sd	s1, 8(sp)
80000b40: 13 84 05 00  	mv	s0, a1
80000b44: 93 04 05 00  	mv	s1, a0
80000b48: 97 85 00 00  	auipc	a1, 8
80000b4c: 93 85 05 39  	addi	a1, a1, 912
80000b50: 13 05 09 00  	mv	a0, s2
80000b54: 23 3c 11 00  	sd	ra, 24(sp)
80000b58: ef 70 d0 2a  	jal	0x80008604 <strcmp>
80000b5c: 63 1c 05 02  	bnez	a0, 0x80000b94 <hart_filter_prop+0x68>
80000b60: 03 b5 04 01  	ld	a0, 16(s1)
80000b64: 97 85 00 00  	auipc	a1, 8
80000b68: 93 85 c5 39  	addi	a1, a1, 924
80000b6c: ef 70 90 29  	jal	0x80008604 <strcmp>
80000b70: 63 12 05 02  	bnez	a0, 0x80000b94 <hart_filter_prop+0x68>
80000b74: 93 07 10 00  	li	a5, 1
80000b78: 83 30 81 01  	ld	ra, 24(sp)
80000b7c: 23 20 f4 00  	sw	a5, 0(s0)
80000b80: 03 34 01 01  	ld	s0, 16(sp)
80000b84: 83 34 81 00  	ld	s1, 8(sp)
80000b88: 03 39 01 00  	ld	s2, 0(sp)
80000b8c: 13 01 01 02  	addi	sp, sp, 32
80000b90: 67 80 00 00  	ret
80000b94: 97 85 00 00  	auipc	a1, 8
80000b98: 93 85 c5 35  	addi	a1, a1, 860
80000b9c: 13 05 09 00  	mv	a0, s2
80000ba0: ef 70 50 26  	jal	0x80008604 <strcmp>
80000ba4: 93 07 05 00  	mv	a5, a0
80000ba8: 63 1e 05 08  	bnez	a0, 0x80000c44 <hart_filter_prop+0x118>
80000bac: 03 b7 04 00  	ld	a4, 0(s1)
80000bb0: 03 b6 04 01  	ld	a2, 16(s1)
80000bb4: 03 37 07 00  	ld	a4, 0(a4)
80000bb8: 03 27 07 01  	lw	a4, 16(a4)
80000bbc: 63 56 e0 06  	blez	a4, 0x80000c28 <hart_filter_prop+0xfc>
80000bc0: 9b 05 f7 ff  	addiw	a1, a4, -1
80000bc4: 93 95 05 02  	slli	a1, a1, 32
80000bc8: 93 d5 05 02  	srli	a1, a1, 32
80000bcc: 93 85 15 00  	addi	a1, a1, 1
80000bd0: 93 95 25 00  	slli	a1, a1, 2
80000bd4: 37 08 01 ff  	lui	a6, 1044496
80000bd8: 37 05 ff 00  	lui	a0, 4080
80000bdc: b3 05 b6 00  	add	a1, a2, a1
80000be0: 13 08 08 f0  	addi	a6, a6, -256
80000be4: 13 05 f5 0f  	addi	a0, a0, 255
80000be8: 03 27 06 00  	lw	a4, 0(a2)
80000bec: 93 96 07 02  	slli	a3, a5, 32
80000bf0: 13 06 46 00  	addi	a2, a2, 4
80000bf4: 9b 17 87 00  	slliw	a5, a4, 8
80000bf8: 1b 57 87 00  	srliw	a4, a4, 8
80000bfc: 33 77 a7 00  	and	a4, a4, a0
80000c00: b3 f7 07 01  	and	a5, a5, a6
80000c04: b3 e7 e7 00  	or	a5, a5, a4
80000c08: 1b 97 07 01  	slliw	a4, a5, 16
80000c0c: 9b d7 07 01  	srliw	a5, a5, 16
80000c10: b3 67 f7 00  	or	a5, a4, a5
80000c14: 93 97 07 02  	slli	a5, a5, 32
80000c18: 93 d7 07 02  	srli	a5, a5, 32
80000c1c: b3 87 d7 00  	add	a5, a5, a3
80000c20: e3 14 b6 fc  	bne	a2, a1, 0x80000be8 <hart_filter_prop+0xbc>
80000c24: 9b 87 07 00  	sext.w	a5, a5
80000c28: 23 22 f4 00  	sw	a5, 4(s0)
80000c2c: 83 30 81 01  	ld	ra, 24(sp)
80000c30: 03 34 01 01  	ld	s0, 16(sp)
80000c34: 83 34 81 00  	ld	s1, 8(sp)
80000c38: 03 39 01 00  	ld	s2, 0(sp)
80000c3c: 13 01 01 02  	addi	sp, sp, 32
80000c40: 67 80 00 00  	ret
80000c44: 97 85 00 00  	auipc	a1, 8
80000c48: 93 85 c5 47  	addi	a1, a1, 1148
80000c4c: 13 05 09 00  	mv	a0, s2
80000c50: ef 70 50 1b  	jal	0x80008604 <strcmp>
80000c54: 63 02 05 02  	beqz	a0, 0x80000c78 <hart_filter_prop+0x14c>
80000c58: 97 85 00 00  	auipc	a1, 8
80000c5c: 93 85 05 31  	addi	a1, a1, 784
80000c60: 13 05 09 00  	mv	a0, s2
80000c64: ef 70 10 1a  	jal	0x80008604 <strcmp>
80000c68: e3 12 05 fc  	bnez	a0, 0x80000c2c <hart_filter_prop+0x100>
80000c6c: 83 b7 04 01  	ld	a5, 16(s1)
80000c70: 23 38 f4 00  	sd	a5, 16(s0)
80000c74: 6f f0 9f fb  	j	0x80000c2c <hart_filter_prop+0x100>
80000c78: 83 b7 04 01  	ld	a5, 16(s1)
80000c7c: 83 30 81 01  	ld	ra, 24(sp)
80000c80: 83 34 81 00  	ld	s1, 8(sp)
80000c84: 23 34 f4 00  	sd	a5, 8(s0)
80000c88: 03 34 01 01  	ld	s0, 16(sp)
80000c8c: 03 39 01 00  	ld	s2, 0(sp)
80000c90: 13 01 01 02  	addi	sp, sp, 32
80000c94: 67 80 00 00  	ret

0000000080000c98 <fdt_scan_helper>:
80000c98: 93 07 10 00  	li	a5, 1
80000c9c: 13 01 01 f4  	addi	sp, sp, -192
80000ca0: 93 97 07 02  	slli	a5, a5, 32
80000ca4: 23 38 81 0a  	sd	s0, 176(sp)
80000ca8: 23 34 91 0a  	sd	s1, 168(sp)
80000cac: 93 87 27 00  	addi	a5, a5, 2
80000cb0: b7 04 ff 00  	lui	s1, 4080
80000cb4: 37 04 01 ff  	lui	s0, 1044496
80000cb8: 23 30 21 0b  	sd	s2, 160(sp)
80000cbc: 23 3c 31 09  	sd	s3, 152(sp)
80000cc0: 23 38 41 09  	sd	s4, 144(sp)
80000cc4: 23 34 51 09  	sd	s5, 136(sp)
80000cc8: 23 30 61 09  	sd	s6, 128(sp)
80000ccc: 23 3c 71 07  	sd	s7, 120(sp)
80000cd0: 23 38 81 07  	sd	s8, 112(sp)
80000cd4: 23 34 91 07  	sd	s9, 104(sp)
80000cd8: 23 30 a1 07  	sd	s10, 96(sp)
80000cdc: 23 3c 11 0a  	sd	ra, 184(sp)
80000ce0: 23 3c b1 05  	sd	s11, 88(sp)
80000ce4: 13 0c 06 00  	mv	s8, a2
80000ce8: 93 0b 05 00  	mv	s7, a0
80000cec: 13 89 05 00  	mv	s2, a1
80000cf0: 13 8b 06 00  	mv	s6, a3
80000cf4: 23 3c c1 00  	sd	a2, 24(sp)
80000cf8: 23 34 f1 02  	sd	a5, 40(sp)
80000cfc: 23 38 c1 02  	sd	a2, 48(sp)
80000d00: 13 0d 00 00  	li	s10, 0
80000d04: 93 84 f4 0f  	addi	s1, s1, 255
80000d08: 13 04 04 f0  	addi	s0, s0, -256
80000d0c: 93 0c 30 00  	li	s9, 3
80000d10: 97 8a 00 00  	auipc	s5, 8
80000d14: 93 8a 0a 27  	addi	s5, s5, 624
80000d18: 17 8a 00 00  	auipc	s4, 8
80000d1c: 13 0a 8a 27  	addi	s4, s4, 632
80000d20: 93 09 40 00  	li	s3, 4
80000d24: 83 a7 0b 00  	lw	a5, 0(s7)
80000d28: 1b d7 87 00  	srliw	a4, a5, 8
80000d2c: 9b 97 87 00  	slliw	a5, a5, 8
80000d30: b3 f7 87 00  	and	a5, a5, s0
80000d34: 33 77 97 00  	and	a4, a4, s1
80000d38: 33 67 f7 00  	or	a4, a4, a5
80000d3c: 9b 17 07 01  	slliw	a5, a4, 16
80000d40: 1b 57 07 01  	srliw	a4, a4, 16
80000d44: b3 e7 e7 00  	or	a5, a5, a4
80000d48: 9b 87 07 00  	sext.w	a5, a5
80000d4c: 63 84 97 0b  	beq	a5, s9, 0x80000df4 <fdt_scan_helper+0x15c>
80000d50: 63 ee fc 04  	bltu	s9, a5, 0x80000dac <fdt_scan_helper+0x114>
80000d54: 13 07 10 00  	li	a4, 1
80000d58: 63 8c e7 1a  	beq	a5, a4, 0x80000f10 <fdt_scan_helper+0x278>
80000d5c: 13 07 20 00  	li	a4, 2
80000d60: 63 9a e7 06  	bne	a5, a4, 0x80000dd4 <fdt_scan_helper+0x13c>
80000d64: 63 0a 0d 04  	beqz	s10, 0x80000db8 <fdt_scan_helper+0x120>
80000d68: 93 8b 4b 00  	addi	s7, s7, 4
80000d6c: 83 30 81 0b  	ld	ra, 184(sp)
80000d70: 03 34 01 0b  	ld	s0, 176(sp)
80000d74: 83 34 81 0a  	ld	s1, 168(sp)
80000d78: 03 39 01 0a  	ld	s2, 160(sp)
80000d7c: 83 39 81 09  	ld	s3, 152(sp)
80000d80: 03 3a 01 09  	ld	s4, 144(sp)
80000d84: 83 3a 81 08  	ld	s5, 136(sp)
80000d88: 03 3b 01 08  	ld	s6, 128(sp)
80000d8c: 03 3c 01 07  	ld	s8, 112(sp)
80000d90: 83 3c 81 06  	ld	s9, 104(sp)
80000d94: 03 3d 01 06  	ld	s10, 96(sp)
80000d98: 83 3d 81 05  	ld	s11, 88(sp)
80000d9c: 13 85 0b 00  	mv	a0, s7
80000da0: 83 3b 81 07  	ld	s7, 120(sp)
80000da4: 13 01 01 0c  	addi	sp, sp, 192
80000da8: 67 80 00 00  	ret
80000dac: 63 94 37 03  	bne	a5, s3, 0x80000dd4 <fdt_scan_helper+0x13c>
80000db0: 93 8b 4b 00  	addi	s7, s7, 4
80000db4: 6f f0 1f f7  	j	0x80000d24 <fdt_scan_helper+0x8c>
80000db8: e3 08 0c fa  	beqz	s8, 0x80000d68 <fdt_scan_helper+0xd0>
80000dbc: 83 37 0b 01  	ld	a5, 16(s6)
80000dc0: e3 84 07 fa  	beqz	a5, 0x80000d68 <fdt_scan_helper+0xd0>
80000dc4: 83 35 0b 02  	ld	a1, 32(s6)
80000dc8: 13 05 0c 00  	mv	a0, s8
80000dcc: e7 80 07 00  	jalr	a5
80000dd0: 6f f0 9f f9  	j	0x80000d68 <fdt_scan_helper+0xd0>
80000dd4: e3 1c 0d f8  	bnez	s10, 0x80000d6c <fdt_scan_helper+0xd4>
80000dd8: e3 0a 0c f8  	beqz	s8, 0x80000d6c <fdt_scan_helper+0xd4>
80000ddc: 83 37 0b 01  	ld	a5, 16(s6)
80000de0: e3 86 07 f8  	beqz	a5, 0x80000d6c <fdt_scan_helper+0xd4>
80000de4: 83 35 0b 02  	ld	a1, 32(s6)
80000de8: 13 05 0c 00  	mv	a0, s8
80000dec: e7 80 07 00  	jalr	a5
80000df0: 6f f0 df f7  	j	0x80000d6c <fdt_scan_helper+0xd4>
80000df4: 63 12 0d 1c  	bnez	s10, 0x80000fb8 <fdt_scan_helper+0x320>
80000df8: 03 a7 8b 00  	lw	a4, 8(s7)
80000dfc: 03 a6 4b 00  	lw	a2, 4(s7)
80000e00: 93 85 cb 00  	addi	a1, s7, 12
80000e04: 9b 17 87 00  	slliw	a5, a4, 8
80000e08: 1b 57 87 00  	srliw	a4, a4, 8
80000e0c: 33 77 97 00  	and	a4, a4, s1
80000e10: b3 f7 87 00  	and	a5, a5, s0
80000e14: 9b 16 86 00  	slliw	a3, a2, 8
80000e18: b3 e7 e7 00  	or	a5, a5, a4
80000e1c: 1b 56 86 00  	srliw	a2, a2, 8
80000e20: 1b 97 07 01  	slliw	a4, a5, 16
80000e24: b3 f6 86 00  	and	a3, a3, s0
80000e28: 33 76 96 00  	and	a2, a2, s1
80000e2c: 9b d7 07 01  	srliw	a5, a5, 16
80000e30: b3 e6 c6 00  	or	a3, a3, a2
80000e34: 33 67 f7 00  	or	a4, a4, a5
80000e38: 9b 9d 06 01  	slliw	s11, a3, 16
80000e3c: 13 17 07 02  	slli	a4, a4, 32
80000e40: 9b d6 06 01  	srliw	a3, a3, 16
80000e44: 13 57 07 02  	srli	a4, a4, 32
80000e48: b3 e6 dd 00  	or	a3, s11, a3
80000e4c: 33 07 e9 00  	add	a4, s2, a4
80000e50: 9b 8d 06 00  	sext.w	s11, a3
80000e54: 23 3c e1 02  	sd	a4, 56(sp)
80000e58: 23 24 b1 05  	sw	s11, 72(sp)
80000e5c: 23 30 b1 04  	sd	a1, 64(sp)
80000e60: 63 0e 0c 06  	beqz	s8, 0x80000edc <fdt_scan_helper+0x244>
80000e64: 13 05 07 00  	mv	a0, a4
80000e68: 93 85 0a 00  	mv	a1, s5
80000e6c: 23 34 e1 00  	sd	a4, 8(sp)
80000e70: ef 70 40 79  	jal	0x80008604 <strcmp>
80000e74: 03 37 81 00  	ld	a4, 8(sp)
80000e78: 63 16 05 02  	bnez	a0, 0x80000ea4 <fdt_scan_helper+0x20c>
80000e7c: 83 a6 cb 00  	lw	a3, 12(s7)
80000e80: 9b 97 86 00  	slliw	a5, a3, 8
80000e84: 9b d6 86 00  	srliw	a3, a3, 8
80000e88: b3 f6 96 00  	and	a3, a3, s1
80000e8c: b3 f7 87 00  	and	a5, a5, s0
80000e90: b3 e7 d7 00  	or	a5, a5, a3
80000e94: 9b 96 07 01  	slliw	a3, a5, 16
80000e98: 9b d7 07 01  	srliw	a5, a5, 16
80000e9c: b3 e7 f6 00  	or	a5, a3, a5
80000ea0: 23 28 fc 00  	sw	a5, 16(s8)
80000ea4: 93 05 0a 00  	mv	a1, s4
80000ea8: 13 05 07 00  	mv	a0, a4
80000eac: ef 70 80 75  	jal	0x80008604 <strcmp>
80000eb0: 63 16 05 02  	bnez	a0, 0x80000edc <fdt_scan_helper+0x244>
80000eb4: 03 a7 cb 00  	lw	a4, 12(s7)
80000eb8: 9b 17 87 00  	slliw	a5, a4, 8
80000ebc: 1b 57 87 00  	srliw	a4, a4, 8
80000ec0: 33 77 97 00  	and	a4, a4, s1
80000ec4: b3 f7 87 00  	and	a5, a5, s0
80000ec8: b3 e7 e7 00  	or	a5, a5, a4
80000ecc: 1b 97 07 01  	slliw	a4, a5, 16
80000ed0: 9b d7 07 01  	srliw	a5, a5, 16
80000ed4: b3 67 f7 00  	or	a5, a4, a5
80000ed8: 23 2a fc 00  	sw	a5, 20(s8)
80000edc: 9b 8d 3d 00  	addiw	s11, s11, 3
80000ee0: 9b d7 fd 41  	sraiw	a5, s11, 31
80000ee4: 9b d7 e7 01  	srliw	a5, a5, 30
80000ee8: bb 87 b7 01  	addw	a5, a5, s11
80000eec: 03 37 8b 00  	ld	a4, 8(s6)
80000ef0: 83 35 0b 02  	ld	a1, 32(s6)
80000ef4: 9b d7 27 40  	sraiw	a5, a5, 2
80000ef8: 9b 87 37 00  	addiw	a5, a5, 3
80000efc: 93 97 27 00  	slli	a5, a5, 2
80000f00: 13 05 01 03  	addi	a0, sp, 48
80000f04: b3 8b fb 00  	add	s7, s7, a5
80000f08: e7 00 07 00  	jalr	a4
80000f0c: 6f f0 9f e1  	j	0x80000d24 <fdt_scan_helper+0x8c>
80000f10: 63 1e 0d 00  	bnez	s10, 0x80000f2c <fdt_scan_helper+0x294>
80000f14: 63 0c 0c 00  	beqz	s8, 0x80000f2c <fdt_scan_helper+0x294>
80000f18: 83 37 0b 01  	ld	a5, 16(s6)
80000f1c: 63 88 07 00  	beqz	a5, 0x80000f2c <fdt_scan_helper+0x294>
80000f20: 83 35 0b 02  	ld	a1, 32(s6)
80000f24: 13 05 0c 00  	mv	a0, s8
80000f28: e7 80 07 00  	jalr	a5
80000f2c: 83 37 0b 00  	ld	a5, 0(s6)
80000f30: 13 85 4b 00  	addi	a0, s7, 4
80000f34: 23 30 a1 02  	sd	a0, 32(sp)
80000f38: 63 8a 07 00  	beqz	a5, 0x80000f4c <fdt_scan_helper+0x2b4>
80000f3c: 83 35 0b 02  	ld	a1, 32(s6)
80000f40: 13 05 81 01  	addi	a0, sp, 24
80000f44: e7 80 07 00  	jalr	a5
80000f48: 03 35 01 02  	ld	a0, 32(sp)
80000f4c: ef 70 00 69  	jal	0x800085dc <strlen>
80000f50: 13 75 c5 ff  	andi	a0, a0, -4
80000f54: 13 05 85 00  	addi	a0, a0, 8
80000f58: 93 06 0b 00  	mv	a3, s6
80000f5c: 13 06 81 01  	addi	a2, sp, 24
80000f60: 93 05 09 00  	mv	a1, s2
80000f64: 33 85 ab 00  	add	a0, s7, a0
80000f68: ef f0 1f d3  	jal	0x80000c98 <fdt_scan_helper>
80000f6c: 83 37 8b 01  	ld	a5, 24(s6)
80000f70: 13 0d 05 00  	mv	s10, a0
80000f74: 63 8c 07 00  	beqz	a5, 0x80000f8c <fdt_scan_helper+0x2f4>
80000f78: 83 35 0b 02  	ld	a1, 32(s6)
80000f7c: 13 05 81 01  	addi	a0, sp, 24
80000f80: e7 80 07 00  	jalr	a5
80000f84: 93 07 f0 ff  	li	a5, -1
80000f88: 63 08 f5 00  	beq	a0, a5, 0x80000f98 <fdt_scan_helper+0x300>
80000f8c: 93 0b 0d 00  	mv	s7, s10
80000f90: 13 0d 10 00  	li	s10, 1
80000f94: 6f f0 1f d9  	j	0x80000d24 <fdt_scan_helper+0x8c>
80000f98: 63 8c ab 01  	beq	s7, s10, 0x80000fb0 <fdt_scan_helper+0x318>
80000f9c: b7 07 00 04  	lui	a5, 16384
80000fa0: 93 8b 4b 00  	addi	s7, s7, 4
80000fa4: 23 ae fb fe  	sw	a5, -4(s7)
80000fa8: e3 1c 7d ff  	bne	s10, s7, 0x80000fa0 <fdt_scan_helper+0x308>
80000fac: 6f f0 1f fe  	j	0x80000f8c <fdt_scan_helper+0x2f4>
80000fb0: 13 0d 10 00  	li	s10, 1
80000fb4: 6f f0 1f d7  	j	0x80000d24 <fdt_scan_helper+0x8c>
80000fb8: 17 85 00 00  	auipc	a0, 8
80000fbc: 13 05 05 ef  	addi	a0, a0, -272
80000fc0: 97 86 00 00  	auipc	a3, 8
80000fc4: 93 86 86 fb  	addi	a3, a3, -72
80000fc8: 13 06 a0 03  	li	a2, 58
80000fcc: 97 85 00 00  	auipc	a1, 8
80000fd0: 93 85 45 ec  	addi	a1, a1, -316
80000fd4: ef 10 80 59  	jal	0x8000256c <printm>
80000fd8: 37 05 01 00  	lui	a0, 16
80000fdc: 13 05 f5 ff  	addi	a0, a0, -1
80000fe0: ef 10 40 62  	jal	0x80002604 <poweroff>

0000000080000fe4 <mem_open>:
80000fe4: 13 85 05 00  	mv	a0, a1
80000fe8: 13 06 80 01  	li	a2, 24
80000fec: 93 05 00 00  	li	a1, 0
80000ff0: 6f 70 c0 58  	j	0x8000857c <memset>

0000000080000ff4 <clint_done>:
80000ff4: 83 a7 05 00  	lw	a5, 0(a1)
80000ff8: 63 8c 07 10  	beqz	a5, 0x80001110 <clint_done+0x11c>
80000ffc: 13 01 01 ff  	addi	sp, sp, -16
80001000: 23 30 81 00  	sd	s0, 0(sp)
80001004: 23 34 11 00  	sd	ra, 8(sp)
80001008: 13 04 01 01  	addi	s0, sp, 16
8000100c: 83 b8 85 00  	ld	a7, 8(a1)
80001010: 63 8e 08 14  	beqz	a7, 0x8000116c <clint_done+0x178>
80001014: 83 b6 05 01  	ld	a3, 16(a1)
80001018: 63 8e 06 0e  	beqz	a3, 0x80001114 <clint_done+0x120>
8000101c: 03 a7 85 01  	lw	a4, 24(a1)
80001020: 13 76 f7 00  	andi	a2, a4, 15
80001024: 63 18 06 0e  	bnez	a2, 0x80001114 <clint_done+0x120>
80001028: 83 a7 c5 01  	lw	a5, 28(a1)
8000102c: 63 9a 07 10  	bnez	a5, 0x80001140 <clint_done+0x14c>
80001030: 9b 57 f7 41  	sraiw	a5, a4, 31
80001034: 9b d7 e7 01  	srliw	a5, a5, 30
80001038: bb 87 e7 00  	addw	a5, a5, a4
8000103c: 37 c7 00 00  	lui	a4, 12
80001040: 13 07 87 ff  	addi	a4, a4, -8
80001044: 9b d7 27 40  	sraiw	a5, a5, 2
80001048: 33 87 e8 00  	add	a4, a7, a4
8000104c: 13 05 10 00  	li	a0, 1
80001050: 23 ae a5 00  	sw	a0, 28(a1)
80001054: 93 97 27 00  	slli	a5, a5, 2
80001058: 97 c5 00 00  	auipc	a1, 12
8000105c: 23 b8 e5 fe  	sd	a4, -16(a1)
80001060: 63 50 f0 0a  	blez	a5, 0x80001100 <clint_done+0x10c>
80001064: 37 18 00 00  	lui	a6, 1
80001068: 73 27 40 f1  	csrr	a4, mhartid
8000106c: 33 07 e0 40  	neg	a4, a4
80001070: b7 f5 ff ff  	lui	a1, 1048575
80001074: 33 08 04 01  	add	a6, s0, a6
80001078: 13 17 c7 00  	slli	a4, a4, 12
8000107c: 33 78 b8 00  	and	a6, a6, a1
80001080: 13 07 07 fc  	addi	a4, a4, -64
80001084: 37 0e 01 ff  	lui	t3, 1044496
80001088: 37 03 ff 00  	lui	t1, 4080
8000108c: 37 4f 00 00  	lui	t5, 4
80001090: b3 85 f6 00  	add	a1, a3, a5
80001094: 97 ce 00 00  	auipc	t4, 12
80001098: 93 8e 4e f7  	addi	t4, t4, -140
8000109c: 13 0e 0e f0  	addi	t3, t3, -256
800010a0: 13 03 f3 0f  	addi	t1, t1, 255
800010a4: 33 08 e8 00  	add	a6, a6, a4
800010a8: 33 8f e8 01  	add	t5, a7, t5
800010ac: 03 a7 06 00  	lw	a4, 0(a3)
800010b0: 03 a5 0e 00  	lw	a0, 0(t4)
800010b4: 9b 17 87 00  	slliw	a5, a4, 8
800010b8: 1b 57 87 00  	srliw	a4, a4, 8
800010bc: 33 77 67 00  	and	a4, a4, t1
800010c0: b3 f7 c7 01  	and	a5, a5, t3
800010c4: b3 e7 e7 00  	or	a5, a5, a4
800010c8: 1b 97 07 01  	slliw	a4, a5, 16
800010cc: 9b d7 07 01  	srliw	a5, a5, 16
800010d0: b3 67 f7 00  	or	a5, a4, a5
800010d4: 9b 87 07 00  	sext.w	a5, a5
800010d8: 63 1c f5 00  	bne	a0, a5, 0x800010f0 <clint_done+0xfc>
800010dc: 9b 17 16 00  	slliw	a5, a2, 1
800010e0: 33 07 16 01  	add	a4, a2, a7
800010e4: b3 87 e7 01  	add	a5, a5, t5
800010e8: 23 30 e8 00  	sd	a4, 0(a6)
800010ec: 23 38 f8 00  	sd	a5, 16(a6)
800010f0: 93 86 06 01  	addi	a3, a3, 16
800010f4: b3 87 d5 40  	sub	a5, a1, a3
800010f8: 1b 06 46 00  	addiw	a2, a2, 4
800010fc: e3 48 f0 fa  	bgtz	a5, 0x800010ac <clint_done+0xb8>
80001100: 83 30 81 00  	ld	ra, 8(sp)
80001104: 03 34 01 00  	ld	s0, 0(sp)
80001108: 13 01 01 01  	addi	sp, sp, 16
8000110c: 67 80 00 00  	ret
80001110: 67 80 00 00  	ret
80001114: 17 85 00 00  	auipc	a0, 8
80001118: 13 05 45 d9  	addi	a0, a0, -620
8000111c: 97 86 00 00  	auipc	a3, 8
80001120: 93 86 46 e9  	addi	a3, a3, -364
80001124: 13 06 80 15  	li	a2, 344
80001128: 97 85 00 00  	auipc	a1, 8
8000112c: 93 85 85 d6  	addi	a1, a1, -664
80001130: ef 10 c0 43  	jal	0x8000256c <printm>
80001134: 37 05 01 00  	lui	a0, 16
80001138: 13 05 f5 ff  	addi	a0, a0, -1
8000113c: ef 10 80 4c  	jal	0x80002604 <poweroff>
80001140: 17 85 00 00  	auipc	a0, 8
80001144: 13 05 85 d6  	addi	a0, a0, -664
80001148: 97 86 00 00  	auipc	a3, 8
8000114c: 93 86 86 e9  	addi	a3, a3, -360
80001150: 13 06 90 15  	li	a2, 345
80001154: 97 85 00 00  	auipc	a1, 8
80001158: 93 85 c5 d3  	addi	a1, a1, -708
8000115c: ef 10 00 41  	jal	0x8000256c <printm>
80001160: 37 05 01 00  	lui	a0, 16
80001164: 13 05 f5 ff  	addi	a0, a0, -1
80001168: ef 10 c0 49  	jal	0x80002604 <poweroff>
8000116c: 17 85 00 00  	auipc	a0, 8
80001170: 13 05 c5 d3  	addi	a0, a0, -708
80001174: 97 86 00 00  	auipc	a3, 8
80001178: 93 86 c6 e2  	addi	a3, a3, -468
8000117c: 13 06 70 15  	li	a2, 343
80001180: 97 85 00 00  	auipc	a1, 8
80001184: 93 85 05 d1  	addi	a1, a1, -752
80001188: ef 10 40 3e  	jal	0x8000256c <printm>
8000118c: 37 05 01 00  	lui	a0, 16
80001190: 13 05 f5 ff  	addi	a0, a0, -1
80001194: ef 10 00 47  	jal	0x80002604 <poweroff>

0000000080001198 <plic_done>:
80001198: 83 a7 05 00  	lw	a5, 0(a1)
8000119c: 63 8a 07 20  	beqz	a5, 0x800013b0 <plic_done+0x218>
800011a0: 13 01 01 fa  	addi	sp, sp, -96
800011a4: 23 38 81 04  	sd	s0, 80(sp)
800011a8: 23 34 51 03  	sd	s5, 40(sp)
800011ac: 23 3c 11 04  	sd	ra, 88(sp)
800011b0: 23 34 91 04  	sd	s1, 72(sp)
800011b4: 23 30 21 05  	sd	s2, 64(sp)
800011b8: 23 3c 31 03  	sd	s3, 56(sp)
800011bc: 23 38 41 03  	sd	s4, 48(sp)
800011c0: 23 30 61 03  	sd	s6, 32(sp)
800011c4: 23 3c 71 01  	sd	s7, 24(sp)
800011c8: 23 38 81 01  	sd	s8, 16(sp)
800011cc: 23 34 91 01  	sd	s9, 8(sp)
800011d0: 13 04 01 06  	addi	s0, sp, 96
800011d4: 83 b6 85 00  	ld	a3, 8(a1)
800011d8: 93 8a 05 00  	mv	s5, a1
800011dc: 63 82 06 20  	beqz	a3, 0x800013e0 <plic_done+0x248>
800011e0: 83 b4 05 01  	ld	s1, 16(a1)
800011e4: 63 88 04 1c  	beqz	s1, 0x800013b4 <plic_done+0x21c>
800011e8: 83 a7 85 01  	lw	a5, 24(a1)
800011ec: 13 f7 77 00  	andi	a4, a5, 7
800011f0: 63 12 07 1c  	bnez	a4, 0x800013b4 <plic_done+0x21c>
800011f4: 03 a7 05 02  	lw	a4, 32(a1)
800011f8: 13 06 f0 3f  	li	a2, 1023
800011fc: 63 6e e6 22  	bltu	a2, a4, 0x80001438 <plic_done+0x2a0>
80001200: 03 a6 c5 01  	lw	a2, 28(a1)
80001204: 63 14 06 20  	bnez	a2, 0x8000140c <plic_done+0x274>
80001208: 1b d9 f7 41  	sraiw	s2, a5, 31
8000120c: 1b 59 e9 01  	srliw	s2, s2, 30
80001210: 3b 09 f9 00  	addw	s2, s2, a5
80001214: 1b 59 29 40  	sraiw	s2, s2, 2
80001218: 93 07 10 00  	li	a5, 1
8000121c: 23 ae f5 00  	sw	a5, 28(a1)
80001220: 13 19 29 00  	slli	s2, s2, 2
80001224: 97 c7 00 00  	auipc	a5, 12
80001228: 23 b6 d7 e0  	sd	a3, -500(a5)
8000122c: 97 c7 00 00  	auipc	a5, 12
80001230: 23 be e7 de  	sd	a4, -516(a5)
80001234: 63 56 20 09  	blez	s2, 0x800012c0 <plic_done+0x128>
80001238: 37 1b 00 00  	lui	s6, 1
8000123c: f3 27 40 f1  	csrr	a5, mhartid
80001240: b3 07 f0 40  	neg	a5, a5
80001244: 33 0b 64 01  	add	s6, s0, s6
80001248: 93 97 c7 00  	slli	a5, a5, 12
8000124c: 37 f7 ff ff  	lui	a4, 1048575
80001250: 3b 0c 90 40  	negw	s8, s1
80001254: 33 7b eb 00  	and	s6, s6, a4
80001258: 93 87 07 fc  	addi	a5, a5, -64
8000125c: 37 0a 01 ff  	lui	s4, 1044496
80001260: b7 09 ff 00  	lui	s3, 4080
80001264: 9b 1c 4c 00  	slliw	s9, s8, 4
80001268: 33 89 24 01  	add	s2, s1, s2
8000126c: 1b 1c 9c 00  	slliw	s8, s8, 9
80001270: 97 cb 00 00  	auipc	s7, 12
80001274: 93 8b 8b d9  	addi	s7, s7, -616
80001278: 13 0a 0a f0  	addi	s4, s4, -256
8000127c: 93 89 f9 0f  	addi	s3, s3, 255
80001280: 33 0b fb 00  	add	s6, s6, a5
80001284: 03 a7 04 00  	lw	a4, 0(s1)
80001288: 83 a6 0b 00  	lw	a3, 0(s7)
8000128c: 9b 17 87 00  	slliw	a5, a4, 8
80001290: 1b 57 87 00  	srliw	a4, a4, 8
80001294: 33 77 37 01  	and	a4, a4, s3
80001298: b3 f7 47 01  	and	a5, a5, s4
8000129c: b3 e7 e7 00  	or	a5, a5, a4
800012a0: 1b 97 07 01  	slliw	a4, a5, 16
800012a4: 9b d7 07 01  	srliw	a5, a5, 16
800012a8: b3 67 f7 00  	or	a5, a4, a5
800012ac: 9b 87 07 00  	sext.w	a5, a5
800012b0: 63 82 f6 04  	beq	a3, a5, 0x800012f4 <plic_done+0x15c>
800012b4: 93 84 84 00  	addi	s1, s1, 8
800012b8: b3 07 99 40  	sub	a5, s2, s1
800012bc: e3 44 f0 fc  	bgtz	a5, 0x80001284 <plic_done+0xec>
800012c0: 83 30 81 05  	ld	ra, 88(sp)
800012c4: 03 34 01 05  	ld	s0, 80(sp)
800012c8: 83 34 81 04  	ld	s1, 72(sp)
800012cc: 03 39 01 04  	ld	s2, 64(sp)
800012d0: 83 39 81 03  	ld	s3, 56(sp)
800012d4: 03 3a 01 03  	ld	s4, 48(sp)
800012d8: 83 3a 81 02  	ld	s5, 40(sp)
800012dc: 03 3b 01 02  	ld	s6, 32(sp)
800012e0: 83 3b 81 01  	ld	s7, 24(sp)
800012e4: 03 3c 01 01  	ld	s8, 16(sp)
800012e8: 83 3c 81 00  	ld	s9, 8(sp)
800012ec: 13 01 01 06  	addi	sp, sp, 96
800012f0: 67 80 00 00  	ret
800012f4: 03 a7 44 00  	lw	a4, 4(s1)
800012f8: 93 06 b0 00  	li	a3, 11
800012fc: 9b 17 87 00  	slliw	a5, a4, 8
80001300: 1b 57 87 00  	srliw	a4, a4, 8
80001304: b3 f7 47 01  	and	a5, a5, s4
80001308: 33 77 37 01  	and	a4, a4, s3
8000130c: b3 e7 e7 00  	or	a5, a5, a4
80001310: 1b 96 07 01  	slliw	a2, a5, 16
80001314: 9b d7 07 01  	srliw	a5, a5, 16
80001318: b3 67 f6 00  	or	a5, a2, a5
8000131c: 1b 86 07 00  	sext.w	a2, a5
80001320: 63 02 d6 04  	beq	a2, a3, 0x80001364 <plic_done+0x1cc>
80001324: 93 07 90 00  	li	a5, 9
80001328: 63 1a f6 06  	bne	a2, a5, 0x8000139c <plic_done+0x204>
8000132c: 83 b6 8a 00  	ld	a3, 8(s5)
80001330: 1b 97 44 00  	slliw	a4, s1, 4
80001334: 9b 97 94 00  	slliw	a5, s1, 9
80001338: 37 26 00 00  	lui	a2, 2
8000133c: b7 05 20 00  	lui	a1, 512
80001340: 33 86 c6 00  	add	a2, a3, a2
80001344: 3b 07 97 01  	addw	a4, a4, s9
80001348: bb 87 87 01  	addw	a5, a5, s8
8000134c: b3 86 b6 00  	add	a3, a3, a1
80001350: 33 07 c7 00  	add	a4, a4, a2
80001354: b3 87 d7 00  	add	a5, a5, a3
80001358: 23 38 eb 02  	sd	a4, 48(s6)
8000135c: 23 34 fb 02  	sd	a5, 40(s6)
80001360: 6f f0 5f f5  	j	0x800012b4 <plic_done+0x11c>
80001364: 83 b6 8a 00  	ld	a3, 8(s5)
80001368: 1b 97 44 00  	slliw	a4, s1, 4
8000136c: 9b 97 94 00  	slliw	a5, s1, 9
80001370: 37 26 00 00  	lui	a2, 2
80001374: b7 05 20 00  	lui	a1, 512
80001378: 33 86 c6 00  	add	a2, a3, a2
8000137c: 3b 07 97 01  	addw	a4, a4, s9
80001380: bb 87 87 01  	addw	a5, a5, s8
80001384: b3 86 b6 00  	add	a3, a3, a1
80001388: 33 07 c7 00  	add	a4, a4, a2
8000138c: b3 87 d7 00  	add	a5, a5, a3
80001390: 23 30 eb 02  	sd	a4, 32(s6)
80001394: 23 3c fb 00  	sd	a5, 24(s6)
80001398: 6f f0 df f1  	j	0x800012b4 <plic_done+0x11c>
8000139c: 93 05 00 00  	li	a1, 0
800013a0: 17 85 00 00  	auipc	a0, 8
800013a4: 13 05 85 ca  	addi	a0, a0, -856
800013a8: ef 10 40 1c  	jal	0x8000256c <printm>
800013ac: 6f f0 9f f0  	j	0x800012b4 <plic_done+0x11c>
800013b0: 67 80 00 00  	ret
800013b4: 17 85 00 00  	auipc	a0, 8
800013b8: 13 05 45 af  	addi	a0, a0, -1292
800013bc: 97 86 00 00  	auipc	a3, 8
800013c0: 93 86 46 c3  	addi	a3, a3, -972
800013c4: 13 06 d0 1a  	li	a2, 429
800013c8: 97 85 00 00  	auipc	a1, 8
800013cc: 93 85 85 ac  	addi	a1, a1, -1336
800013d0: ef 10 c0 19  	jal	0x8000256c <printm>
800013d4: 37 05 01 00  	lui	a0, 16
800013d8: 13 05 f5 ff  	addi	a0, a0, -1
800013dc: ef 10 80 22  	jal	0x80002604 <poweroff>
800013e0: 17 85 00 00  	auipc	a0, 8
800013e4: 13 05 85 ac  	addi	a0, a0, -1336
800013e8: 97 86 00 00  	auipc	a3, 8
800013ec: 93 86 86 bb  	addi	a3, a3, -1096
800013f0: 13 06 c0 1a  	li	a2, 428
800013f4: 97 85 00 00  	auipc	a1, 8
800013f8: 93 85 c5 a9  	addi	a1, a1, -1380
800013fc: ef 10 00 17  	jal	0x8000256c <printm>
80001400: 37 05 01 00  	lui	a0, 16
80001404: 13 05 f5 ff  	addi	a0, a0, -1
80001408: ef 10 c0 1f  	jal	0x80002604 <poweroff>
8000140c: 17 85 00 00  	auipc	a0, 8
80001410: 13 05 c5 a9  	addi	a0, a0, -1380
80001414: 97 86 00 00  	auipc	a3, 8
80001418: 93 86 c6 bc  	addi	a3, a3, -1076
8000141c: 13 06 f0 1a  	li	a2, 431
80001420: 97 85 00 00  	auipc	a1, 8
80001424: 93 85 05 a7  	addi	a1, a1, -1424
80001428: ef 10 40 14  	jal	0x8000256c <printm>
8000142c: 37 05 01 00  	lui	a0, 16
80001430: 13 05 f5 ff  	addi	a0, a0, -1
80001434: ef 10 00 1d  	jal	0x80002604 <poweroff>
80001438: 17 85 00 00  	auipc	a0, 8
8000143c: 13 05 05 a7  	addi	a0, a0, -1424
80001440: 97 86 00 00  	auipc	a3, 8
80001444: 93 86 06 be  	addi	a3, a3, -1056
80001448: 13 06 e0 1a  	li	a2, 430
8000144c: 97 85 00 00  	auipc	a1, 8
80001450: 93 85 45 a4  	addi	a1, a1, -1468
80001454: ef 10 80 11  	jal	0x8000256c <printm>
80001458: 37 05 01 00  	lui	a0, 16
8000145c: 13 05 f5 ff  	addi	a0, a0, -1
80001460: ef 10 40 1a  	jal	0x80002604 <poweroff>

0000000080001464 <hart_done>:
80001464: 83 b7 05 00  	ld	a5, 0(a1)
80001468: 13 01 01 ff  	addi	sp, sp, -16
8000146c: 23 34 11 00  	sd	ra, 8(sp)
80001470: 63 8c a7 00  	beq	a5, a0, 0x80001488 <hart_done+0x24>
80001474: 03 b7 05 01  	ld	a4, 16(a1)
80001478: 63 02 a7 04  	beq	a4, a0, 0x800014bc <hart_done+0x58>
8000147c: 83 30 81 00  	ld	ra, 8(sp)
80001480: 13 01 01 01  	addi	sp, sp, 16
80001484: 67 80 00 00  	ret
80001488: 03 a7 85 00  	lw	a4, 8(a1)
8000148c: e3 54 07 fe  	bgez	a4, 0x80001474 <hart_done+0x10>
80001490: 17 85 00 00  	auipc	a0, 8
80001494: 13 05 85 a1  	addi	a0, a0, -1512
80001498: 97 86 00 00  	auipc	a3, 8
8000149c: 93 86 06 be  	addi	a3, a3, -1056
800014a0: 13 06 60 10  	li	a2, 262
800014a4: 97 85 00 00  	auipc	a1, 8
800014a8: 93 85 c5 9e  	addi	a1, a1, -1556
800014ac: ef 10 00 0c  	jal	0x8000256c <printm>
800014b0: 37 05 01 00  	lui	a0, 16
800014b4: 13 05 f5 ff  	addi	a0, a0, -1
800014b8: ef 10 c0 14  	jal	0x80002604 <poweroff>
800014bc: e3 80 07 fc  	beqz	a5, 0x8000147c <hart_done+0x18>
800014c0: 83 a7 c5 01  	lw	a5, 28(a1)
800014c4: 63 8a 07 04  	beqz	a5, 0x80001518 <hart_done+0xb4>
800014c8: 83 a6 85 01  	lw	a3, 24(a1)
800014cc: 13 07 10 00  	li	a4, 1
800014d0: 63 90 e6 06  	bne	a3, a4, 0x80001530 <hart_done+0xcc>
800014d4: 03 a5 85 00  	lw	a0, 8(a1)
800014d8: e3 42 a0 fa  	bgtz	a0, 0x8000147c <hart_done+0x18>
800014dc: 17 c6 00 00  	auipc	a2, 12
800014e0: 13 06 46 b4  	addi	a2, a2, -1212
800014e4: 83 35 06 00  	ld	a1, 0(a2)
800014e8: 13 07 10 00  	li	a4, 1
800014ec: 13 18 25 00  	slli	a6, a0, 2
800014f0: 3b 17 a7 00  	sllw	a4, a4, a0
800014f4: 97 c6 00 00  	auipc	a3, 12
800014f8: 93 86 46 b1  	addi	a3, a3, -1260
800014fc: 83 30 81 00  	ld	ra, 8(sp)
80001500: b3 86 06 01  	add	a3, a3, a6
80001504: 33 67 b7 00  	or	a4, a4, a1
80001508: 23 a0 f6 00  	sw	a5, 0(a3)
8000150c: 23 30 e6 00  	sd	a4, 0(a2)
80001510: 13 01 01 01  	addi	sp, sp, 16
80001514: 6f 10 80 59  	j	0x80002aac <hls_init>
80001518: 17 85 00 00  	auipc	a0, 8
8000151c: 13 05 05 99  	addi	a0, a0, -1648
80001520: 97 86 00 00  	auipc	a3, 8
80001524: 93 86 86 b6  	addi	a3, a3, -1176
80001528: 13 06 a0 10  	li	a2, 266
8000152c: 6f f0 9f f7  	j	0x800014a4 <hart_done+0x40>
80001530: 17 85 00 00  	auipc	a0, 8
80001534: 13 05 85 97  	addi	a0, a0, -1672
80001538: 97 86 00 00  	auipc	a3, 8
8000153c: 93 86 86 b6  	addi	a3, a3, -1176
80001540: 13 06 b0 10  	li	a2, 267
80001544: 6f f0 1f f6  	j	0x800014a4 <hart_done+0x40>

0000000080001548 <hart_filter_done>:
80001548: 83 a7 05 00  	lw	a5, 0(a1)
8000154c: 63 84 07 10  	beqz	a5, 0x80001654 <hart_filter_done+0x10c>
80001550: 13 01 01 fe  	addi	sp, sp, -32
80001554: 23 34 91 00  	sd	s1, 8(sp)
80001558: 83 b4 85 00  	ld	s1, 8(a1)
8000155c: 23 38 81 00  	sd	s0, 16(sp)
80001560: 23 3c 11 00  	sd	ra, 24(sp)
80001564: 23 30 21 01  	sd	s2, 0(sp)
80001568: 13 84 05 00  	mv	s0, a1
8000156c: 63 86 04 0e  	beqz	s1, 0x80001658 <hart_filter_done+0x110>
80001570: 83 a7 45 00  	lw	a5, 4(a1)
80001574: 63 c8 07 10  	bltz	a5, 0x80001684 <hart_filter_done+0x13c>
80001578: 03 b9 05 01  	ld	s2, 16(a1)
8000157c: 63 0c 09 04  	beqz	s2, 0x800015d4 <hart_filter_done+0x8c>
80001580: 97 85 00 00  	auipc	a1, 8
80001584: 93 85 05 b6  	addi	a1, a1, -1184
80001588: 13 85 04 00  	mv	a0, s1
8000158c: ef 70 80 07  	jal	0x80008604 <strcmp>
80001590: 63 12 05 04  	bnez	a0, 0x800015d4 <hart_filter_done+0x8c>
80001594: 97 85 00 00  	auipc	a1, 8
80001598: 93 85 45 b5  	addi	a1, a1, -1196
8000159c: 13 05 09 00  	mv	a0, s2
800015a0: ef 70 40 06  	jal	0x80008604 <strcmp>
800015a4: 63 0c 05 08  	beqz	a0, 0x8000163c <hart_filter_done+0xf4>
800015a8: 97 85 00 00  	auipc	a1, 8
800015ac: 93 85 05 b5  	addi	a1, a1, -1200
800015b0: 13 05 09 00  	mv	a0, s2
800015b4: ef 70 00 05  	jal	0x80008604 <strcmp>
800015b8: 63 02 05 08  	beqz	a0, 0x8000163c <hart_filter_done+0xf4>
800015bc: 93 85 04 00  	mv	a1, s1
800015c0: 13 06 09 00  	mv	a2, s2
800015c4: 17 85 00 00  	auipc	a0, 8
800015c8: 13 05 45 b4  	addi	a0, a0, -1212
800015cc: ef 00 10 7a  	jal	0x8000256c <printm>
800015d0: 83 34 84 00  	ld	s1, 8(s0)
800015d4: 97 87 00 00  	auipc	a5, 8
800015d8: 93 87 c7 b7  	addi	a5, a5, -1156
800015dc: 03 c6 37 00  	lbu	a2, 3(a5)
800015e0: 83 c6 47 00  	lbu	a3, 4(a5)
800015e4: 03 c7 57 00  	lbu	a4, 5(a5)
800015e8: 03 c8 07 00  	lbu	a6, 0(a5)
800015ec: 03 c5 17 00  	lbu	a0, 1(a5)
800015f0: 83 c5 27 00  	lbu	a1, 2(a5)
800015f4: 83 c7 67 00  	lbu	a5, 6(a5)
800015f8: a3 82 e4 00  	sb	a4, 5(s1)
800015fc: 23 80 04 01  	sb	a6, 0(s1)
80001600: a3 80 a4 00  	sb	a0, 1(s1)
80001604: 23 81 b4 00  	sb	a1, 2(s1)
80001608: a3 81 c4 00  	sb	a2, 3(s1)
8000160c: 23 82 d4 00  	sb	a3, 4(s1)
80001610: 23 83 f4 00  	sb	a5, 6(s1)
80001614: 83 37 84 00  	ld	a5, 8(s0)
80001618: 83 36 84 01  	ld	a3, 24(s0)
8000161c: 37 07 00 07  	lui	a4, 28672
80001620: 23 ac e7 fe  	sw	a4, -8(a5)
80001624: 03 26 44 00  	lw	a2, 4(s0)
80001628: 83 b7 06 00  	ld	a5, 0(a3)
8000162c: 13 07 10 00  	li	a4, 1
80001630: 3b 17 c7 00  	sllw	a4, a4, a2
80001634: b3 e7 e7 00  	or	a5, a5, a4
80001638: 23 b0 f6 00  	sd	a5, 0(a3)
8000163c: 83 30 81 01  	ld	ra, 24(sp)
80001640: 03 34 01 01  	ld	s0, 16(sp)
80001644: 83 34 81 00  	ld	s1, 8(sp)
80001648: 03 39 01 00  	ld	s2, 0(sp)
8000164c: 13 01 01 02  	addi	sp, sp, 32
80001650: 67 80 00 00  	ret
80001654: 67 80 00 00  	ret
80001658: 17 85 00 00  	auipc	a0, 8
8000165c: 13 05 05 85  	addi	a0, a0, -1968
80001660: 97 86 00 00  	auipc	a3, 8
80001664: 93 86 86 a5  	addi	a3, a3, -1448
80001668: 13 06 30 2a  	li	a2, 675
8000166c: 97 85 00 00  	auipc	a1, 8
80001670: 93 85 45 82  	addi	a1, a1, -2012
80001674: ef 00 90 6f  	jal	0x8000256c <printm>
80001678: 37 05 01 00  	lui	a0, 16
8000167c: 13 05 f5 ff  	addi	a0, a0, -1
80001680: ef 00 50 78  	jal	0x80002604 <poweroff>
80001684: 17 85 00 00  	auipc	a0, 8
80001688: 13 05 45 82  	addi	a0, a0, -2012
8000168c: 97 86 00 00  	auipc	a3, 8
80001690: 93 86 c6 a3  	addi	a3, a3, -1476
80001694: 13 06 40 2a  	li	a2, 676
80001698: 97 75 00 00  	auipc	a1, 7
8000169c: 93 85 85 7f  	addi	a1, a1, 2040
800016a0: ef 00 d0 6c  	jal	0x8000256c <printm>
800016a4: 37 05 01 00  	lui	a0, 16
800016a8: 13 05 f5 ff  	addi	a0, a0, -1
800016ac: ef 00 90 75  	jal	0x80002604 <poweroff>

00000000800016b0 <chosen_prop>:
800016b0: 83 b7 05 00  	ld	a5, 0(a1)
800016b4: 63 8e 07 16  	beqz	a5, 0x80001830 <chosen_prop+0x180>
800016b8: 13 01 01 fe  	addi	sp, sp, -32
800016bc: 23 30 21 01  	sd	s2, 0(sp)
800016c0: 03 39 85 00  	ld	s2, 8(a0)
800016c4: 23 38 81 00  	sd	s0, 16(sp)
800016c8: 23 34 91 00  	sd	s1, 8(sp)
800016cc: 13 84 05 00  	mv	s0, a1
800016d0: 93 04 05 00  	mv	s1, a0
800016d4: 97 85 00 00  	auipc	a1, 8
800016d8: 93 85 45 a8  	addi	a1, a1, -1404
800016dc: 13 05 09 00  	mv	a0, s2
800016e0: 23 3c 11 00  	sd	ra, 24(sp)
800016e4: ef 60 10 72  	jal	0x80008604 <strcmp>
800016e8: 63 1e 05 08  	bnez	a0, 0x80001784 <chosen_prop+0xd4>
800016ec: 83 b7 04 00  	ld	a5, 0(s1)
800016f0: 03 b6 04 01  	ld	a2, 16(s1)
800016f4: 83 b7 07 00  	ld	a5, 0(a5)
800016f8: 83 a7 07 01  	lw	a5, 16(a5)
800016fc: 63 52 f0 14  	blez	a5, 0x80001840 <chosen_prop+0x190>
80001700: 9b 85 f7 ff  	addiw	a1, a5, -1
80001704: 93 95 05 02  	slli	a1, a1, 32
80001708: 93 d5 05 02  	srli	a1, a1, 32
8000170c: 93 85 15 00  	addi	a1, a1, 1
80001710: 93 95 25 00  	slli	a1, a1, 2
80001714: 37 08 01 ff  	lui	a6, 1044496
80001718: 37 05 ff 00  	lui	a0, 4080
8000171c: b3 05 b6 00  	add	a1, a2, a1
80001720: 93 07 00 00  	li	a5, 0
80001724: 13 08 08 f0  	addi	a6, a6, -256
80001728: 13 05 f5 0f  	addi	a0, a0, 255
8000172c: 03 27 06 00  	lw	a4, 0(a2)
80001730: 93 96 07 02  	slli	a3, a5, 32
80001734: 13 06 46 00  	addi	a2, a2, 4
80001738: 9b 17 87 00  	slliw	a5, a4, 8
8000173c: 1b 57 87 00  	srliw	a4, a4, 8
80001740: 33 77 a7 00  	and	a4, a4, a0
80001744: b3 f7 07 01  	and	a5, a5, a6
80001748: b3 e7 e7 00  	or	a5, a5, a4
8000174c: 1b 97 07 01  	slliw	a4, a5, 16
80001750: 9b d7 07 01  	srliw	a5, a5, 16
80001754: b3 67 f7 00  	or	a5, a4, a5
80001758: 93 97 07 02  	slli	a5, a5, 32
8000175c: 93 d7 07 02  	srli	a5, a5, 32
80001760: b3 87 d7 00  	add	a5, a5, a3
80001764: e3 14 b6 fc  	bne	a2, a1, 0x8000172c <chosen_prop+0x7c>
80001768: 23 34 f4 00  	sd	a5, 8(s0)
8000176c: 83 30 81 01  	ld	ra, 24(sp)
80001770: 03 34 01 01  	ld	s0, 16(sp)
80001774: 83 34 81 00  	ld	s1, 8(sp)
80001778: 03 39 01 00  	ld	s2, 0(sp)
8000177c: 13 01 01 02  	addi	sp, sp, 32
80001780: 67 80 00 00  	ret
80001784: 97 85 00 00  	auipc	a1, 8
80001788: 93 85 c5 9e  	addi	a1, a1, -1556
8000178c: 13 05 09 00  	mv	a0, s2
80001790: ef 60 50 67  	jal	0x80008604 <strcmp>
80001794: e3 1c 05 fc  	bnez	a0, 0x8000176c <chosen_prop+0xbc>
80001798: 83 b7 04 00  	ld	a5, 0(s1)
8000179c: 03 b6 04 01  	ld	a2, 16(s1)
800017a0: 83 b7 07 00  	ld	a5, 0(a5)
800017a4: 83 a7 07 01  	lw	a5, 16(a5)
800017a8: 63 56 f0 08  	blez	a5, 0x80001834 <chosen_prop+0x184>
800017ac: 9b 85 f7 ff  	addiw	a1, a5, -1
800017b0: 93 95 05 02  	slli	a1, a1, 32
800017b4: 93 d5 05 02  	srli	a1, a1, 32
800017b8: 93 85 15 00  	addi	a1, a1, 1
800017bc: 93 95 25 00  	slli	a1, a1, 2
800017c0: 37 08 01 ff  	lui	a6, 1044496
800017c4: 37 05 ff 00  	lui	a0, 4080
800017c8: b3 05 b6 00  	add	a1, a2, a1
800017cc: 93 07 00 00  	li	a5, 0
800017d0: 13 08 08 f0  	addi	a6, a6, -256
800017d4: 13 05 f5 0f  	addi	a0, a0, 255
800017d8: 03 27 06 00  	lw	a4, 0(a2)
800017dc: 93 96 07 02  	slli	a3, a5, 32
800017e0: 13 06 46 00  	addi	a2, a2, 4
800017e4: 9b 17 87 00  	slliw	a5, a4, 8
800017e8: 1b 57 87 00  	srliw	a4, a4, 8
800017ec: 33 77 a7 00  	and	a4, a4, a0
800017f0: b3 f7 07 01  	and	a5, a5, a6
800017f4: b3 e7 e7 00  	or	a5, a5, a4
800017f8: 1b 97 07 01  	slliw	a4, a5, 16
800017fc: 9b d7 07 01  	srliw	a5, a5, 16
80001800: b3 67 f7 00  	or	a5, a4, a5
80001804: 93 97 07 02  	slli	a5, a5, 32
80001808: 93 d7 07 02  	srli	a5, a5, 32
8000180c: b3 87 d7 00  	add	a5, a5, a3
80001810: e3 14 b6 fc  	bne	a2, a1, 0x800017d8 <chosen_prop+0x128>
80001814: 23 38 f4 00  	sd	a5, 16(s0)
80001818: 83 30 81 01  	ld	ra, 24(sp)
8000181c: 03 34 01 01  	ld	s0, 16(sp)
80001820: 83 34 81 00  	ld	s1, 8(sp)
80001824: 03 39 01 00  	ld	s2, 0(sp)
80001828: 13 01 01 02  	addi	sp, sp, 32
8000182c: 67 80 00 00  	ret
80001830: 67 80 00 00  	ret
80001834: 93 07 00 00  	li	a5, 0
80001838: 23 38 f4 00  	sd	a5, 16(s0)
8000183c: 6f f0 df fd  	j	0x80001818 <chosen_prop+0x168>
80001840: 93 07 00 00  	li	a5, 0
80001844: 6f f0 5f f2  	j	0x80001768 <chosen_prop+0xb8>

0000000080001848 <fdt_scan>:
80001848: 03 27 05 00  	lw	a4, 0(a0)
8000184c: 37 06 ff 00  	lui	a2, 4080
80001850: 37 08 01 ff  	lui	a6, 1044496
80001854: 9b 57 87 00  	srliw	a5, a4, 8
80001858: 13 06 f6 0f  	addi	a2, a2, 255
8000185c: 1b 17 87 00  	slliw	a4, a4, 8
80001860: 13 08 08 f0  	addi	a6, a6, -256
80001864: 33 77 07 01  	and	a4, a4, a6
80001868: b3 f7 c7 00  	and	a5, a5, a2
8000186c: b3 e7 e7 00  	or	a5, a5, a4
80001870: 1b 97 07 01  	slliw	a4, a5, 16
80001874: 9b d7 07 01  	srliw	a5, a5, 16
80001878: b3 67 f7 00  	or	a5, a4, a5
8000187c: 37 07 0e d0  	lui	a4, 852192
80001880: 9b 87 07 00  	sext.w	a5, a5
80001884: 13 07 d7 ee  	addi	a4, a4, -275
80001888: 63 9a e7 02  	bne	a5, a4, 0x800018bc <fdt_scan+0x74>
8000188c: 03 27 85 01  	lw	a4, 24(a0)
80001890: 93 06 10 01  	li	a3, 17
80001894: 9b 17 87 00  	slliw	a5, a4, 8
80001898: 1b 57 87 00  	srliw	a4, a4, 8
8000189c: 33 77 c7 00  	and	a4, a4, a2
800018a0: b3 f7 07 01  	and	a5, a5, a6
800018a4: b3 e7 e7 00  	or	a5, a5, a4
800018a8: 1b 97 07 01  	slliw	a4, a5, 16
800018ac: 9b d7 07 01  	srliw	a5, a5, 16
800018b0: b3 67 f7 00  	or	a5, a4, a5
800018b4: 9b 87 07 00  	sext.w	a5, a5
800018b8: 63 f4 f6 00  	bgeu	a3, a5, 0x800018c0 <fdt_scan+0x78>
800018bc: 67 80 00 00  	ret
800018c0: 83 27 c5 00  	lw	a5, 12(a0)
800018c4: 83 28 85 00  	lw	a7, 8(a0)
800018c8: 93 86 05 00  	mv	a3, a1
800018cc: 1b 97 87 00  	slliw	a4, a5, 8
800018d0: 9b d5 87 00  	srliw	a1, a5, 8
800018d4: 9b 97 88 00  	slliw	a5, a7, 8
800018d8: 9b d8 88 00  	srliw	a7, a7, 8
800018dc: 33 77 07 01  	and	a4, a4, a6
800018e0: b3 f5 c5 00  	and	a1, a1, a2
800018e4: 33 f8 07 01  	and	a6, a5, a6
800018e8: 33 f6 c8 00  	and	a2, a7, a2
800018ec: b3 67 b7 00  	or	a5, a4, a1
800018f0: 33 66 c8 00  	or	a2, a6, a2
800018f4: 9b 95 07 01  	slliw	a1, a5, 16
800018f8: 1b 17 06 01  	slliw	a4, a2, 16
800018fc: 9b d7 07 01  	srliw	a5, a5, 16
80001900: 1b 56 06 01  	srliw	a2, a2, 16
80001904: 33 66 c7 00  	or	a2, a4, a2
80001908: b3 e7 f5 00  	or	a5, a1, a5
8000190c: 13 17 06 02  	slli	a4, a2, 32
80001910: 93 95 07 02  	slli	a1, a5, 32
80001914: 93 d5 05 02  	srli	a1, a1, 32
80001918: 13 57 07 02  	srli	a4, a4, 32
8000191c: b3 85 a5 00  	add	a1, a1, a0
80001920: 13 06 00 00  	li	a2, 0
80001924: 33 05 a7 00  	add	a0, a4, a0
80001928: 6f f0 0f b7  	j	0x80000c98 <fdt_scan_helper>

000000008000192c <fdt_size>:
8000192c: 03 27 05 00  	lw	a4, 0(a0)
80001930: 37 06 01 ff  	lui	a2, 1044496
80001934: b7 06 ff 00  	lui	a3, 4080
80001938: 9b 17 87 00  	slliw	a5, a4, 8
8000193c: 13 06 06 f0  	addi	a2, a2, -256
80001940: 1b 57 87 00  	srliw	a4, a4, 8
80001944: 93 86 f6 0f  	addi	a3, a3, 255
80001948: 33 77 d7 00  	and	a4, a4, a3
8000194c: b3 f7 c7 00  	and	a5, a5, a2
80001950: b3 e7 e7 00  	or	a5, a5, a4
80001954: 1b 97 07 01  	slliw	a4, a5, 16
80001958: 9b d7 07 01  	srliw	a5, a5, 16
8000195c: b3 67 f7 00  	or	a5, a4, a5
80001960: 37 07 0e d0  	lui	a4, 852192
80001964: 9b 87 07 00  	sext.w	a5, a5
80001968: 13 07 d7 ee  	addi	a4, a4, -275
8000196c: 93 05 05 00  	mv	a1, a0
80001970: 63 92 e7 06  	bne	a5, a4, 0x800019d4 <fdt_size+0xa8>
80001974: 03 27 85 01  	lw	a4, 24(a0)
80001978: 13 08 10 01  	li	a6, 17
8000197c: 13 05 00 00  	li	a0, 0
80001980: 9b 17 87 00  	slliw	a5, a4, 8
80001984: 1b 57 87 00  	srliw	a4, a4, 8
80001988: 33 77 d7 00  	and	a4, a4, a3
8000198c: b3 f7 c7 00  	and	a5, a5, a2
80001990: b3 e7 e7 00  	or	a5, a5, a4
80001994: 1b 97 07 01  	slliw	a4, a5, 16
80001998: 9b d7 07 01  	srliw	a5, a5, 16
8000199c: b3 67 f7 00  	or	a5, a4, a5
800019a0: 9b 87 07 00  	sext.w	a5, a5
800019a4: 63 6a f8 02  	bltu	a6, a5, 0x800019d8 <fdt_size+0xac>
800019a8: 83 a7 45 00  	lw	a5, 4(a1)
800019ac: 1b 95 87 00  	slliw	a0, a5, 8
800019b0: 9b d7 87 00  	srliw	a5, a5, 8
800019b4: 33 76 c5 00  	and	a2, a0, a2
800019b8: b3 f6 d7 00  	and	a3, a5, a3
800019bc: b3 66 d6 00  	or	a3, a2, a3
800019c0: 1b 95 06 01  	slliw	a0, a3, 16
800019c4: 9b d6 06 01  	srliw	a3, a3, 16
800019c8: 33 65 d5 00  	or	a0, a0, a3
800019cc: 1b 05 05 00  	sext.w	a0, a0
800019d0: 67 80 00 00  	ret
800019d4: 13 05 00 00  	li	a0, 0
800019d8: 67 80 00 00  	ret

00000000800019dc <fdt_get_address>:
800019dc: 83 27 05 01  	lw	a5, 16(a0)
800019e0: 23 30 06 00  	sd	zero, 0(a2)
800019e4: 63 52 f0 08  	blez	a5, 0x80001a68 <fdt_get_address+0x8c>
800019e8: 1b 83 f7 ff  	addiw	t1, a5, -1
800019ec: 93 18 03 02  	slli	a7, t1, 32
800019f0: 93 d8 08 02  	srli	a7, a7, 32
800019f4: 93 88 18 00  	addi	a7, a7, 1
800019f8: 93 98 28 00  	slli	a7, a7, 2
800019fc: b7 0e 01 ff  	lui	t4, 1044496
80001a00: 37 0e ff 00  	lui	t3, 4080
80001a04: b3 88 15 01  	add	a7, a1, a7
80001a08: 13 88 05 00  	mv	a6, a1
80001a0c: 93 07 00 00  	li	a5, 0
80001a10: 93 8e 0e f0  	addi	t4, t4, -256
80001a14: 13 0e fe 0f  	addi	t3, t3, 255
80001a18: 03 27 08 00  	lw	a4, 0(a6)
80001a1c: 93 96 07 02  	slli	a3, a5, 32
80001a20: 13 08 48 00  	addi	a6, a6, 4
80001a24: 9b 17 87 00  	slliw	a5, a4, 8
80001a28: 1b 57 87 00  	srliw	a4, a4, 8
80001a2c: 33 77 c7 01  	and	a4, a4, t3
80001a30: b3 f7 d7 01  	and	a5, a5, t4
80001a34: b3 e7 e7 00  	or	a5, a5, a4
80001a38: 1b 97 07 01  	slliw	a4, a5, 16
80001a3c: 9b d7 07 01  	srliw	a5, a5, 16
80001a40: b3 67 f7 00  	or	a5, a4, a5
80001a44: 93 97 07 02  	slli	a5, a5, 32
80001a48: 93 d7 07 02  	srli	a5, a5, 32
80001a4c: b3 87 d7 00  	add	a5, a5, a3
80001a50: e3 14 18 fd  	bne	a6, a7, 0x80001a18 <fdt_get_address+0x3c>
80001a54: 13 03 13 00  	addi	t1, t1, 1
80001a58: 13 13 23 00  	slli	t1, t1, 2
80001a5c: 33 85 65 00  	add	a0, a1, t1
80001a60: 23 30 f6 00  	sd	a5, 0(a2)
80001a64: 67 80 00 00  	ret
80001a68: 13 85 05 00  	mv	a0, a1
80001a6c: 67 80 00 00  	ret

0000000080001a70 <fdt_get_size>:
80001a70: 83 27 45 01  	lw	a5, 20(a0)
80001a74: 23 30 06 00  	sd	zero, 0(a2)
80001a78: 63 52 f0 08  	blez	a5, 0x80001afc <fdt_get_size+0x8c>
80001a7c: 1b 83 f7 ff  	addiw	t1, a5, -1
80001a80: 93 18 03 02  	slli	a7, t1, 32
80001a84: 93 d8 08 02  	srli	a7, a7, 32
80001a88: 93 88 18 00  	addi	a7, a7, 1
80001a8c: 93 98 28 00  	slli	a7, a7, 2
80001a90: b7 0e 01 ff  	lui	t4, 1044496
80001a94: 37 0e ff 00  	lui	t3, 4080
80001a98: b3 88 15 01  	add	a7, a1, a7
80001a9c: 13 88 05 00  	mv	a6, a1
80001aa0: 93 07 00 00  	li	a5, 0
80001aa4: 93 8e 0e f0  	addi	t4, t4, -256
80001aa8: 13 0e fe 0f  	addi	t3, t3, 255
80001aac: 03 27 08 00  	lw	a4, 0(a6)
80001ab0: 93 96 07 02  	slli	a3, a5, 32
80001ab4: 13 08 48 00  	addi	a6, a6, 4
80001ab8: 9b 17 87 00  	slliw	a5, a4, 8
80001abc: 1b 57 87 00  	srliw	a4, a4, 8
80001ac0: 33 77 c7 01  	and	a4, a4, t3
80001ac4: b3 f7 d7 01  	and	a5, a5, t4
80001ac8: b3 e7 e7 00  	or	a5, a5, a4
80001acc: 1b 97 07 01  	slliw	a4, a5, 16
80001ad0: 9b d7 07 01  	srliw	a5, a5, 16
80001ad4: b3 67 f7 00  	or	a5, a4, a5
80001ad8: 93 97 07 02  	slli	a5, a5, 32
80001adc: 93 d7 07 02  	srli	a5, a5, 32
80001ae0: b3 87 d7 00  	add	a5, a5, a3
80001ae4: e3 14 18 fd  	bne	a6, a7, 0x80001aac <fdt_get_size+0x3c>
80001ae8: 13 03 13 00  	addi	t1, t1, 1
80001aec: 13 13 23 00  	slli	t1, t1, 2
80001af0: 33 85 65 00  	add	a0, a1, t1
80001af4: 23 30 f6 00  	sd	a5, 0(a2)
80001af8: 67 80 00 00  	ret
80001afc: 13 85 05 00  	mv	a0, a1
80001b00: 67 80 00 00  	ret

0000000080001b04 <fdt_get_value>:
80001b04: 83 37 05 01  	ld	a5, 16(a0)
80001b08: 93 95 05 02  	slli	a1, a1, 32
80001b0c: 93 d5 e5 01  	srli	a1, a1, 30
80001b10: b3 85 b7 00  	add	a1, a5, a1
80001b14: 03 a7 05 00  	lw	a4, 0(a1)
80001b18: 37 05 01 ff  	lui	a0, 1044496
80001b1c: 13 05 05 f0  	addi	a0, a0, -256
80001b20: 9b 17 87 00  	slliw	a5, a4, 8
80001b24: b3 f7 a7 00  	and	a5, a5, a0
80001b28: 37 05 ff 00  	lui	a0, 4080
80001b2c: 13 05 f5 0f  	addi	a0, a0, 255
80001b30: 1b 57 87 00  	srliw	a4, a4, 8
80001b34: 33 77 a7 00  	and	a4, a4, a0
80001b38: b3 e7 e7 00  	or	a5, a5, a4
80001b3c: 1b 95 07 01  	slliw	a0, a5, 16
80001b40: 9b d7 07 01  	srliw	a5, a5, 16
80001b44: 33 65 f5 00  	or	a0, a0, a5
80001b48: 1b 05 05 00  	sext.w	a0, a0
80001b4c: 67 80 00 00  	ret

0000000080001b50 <fdt_string_list_index>:
80001b50: 13 01 01 fd  	addi	sp, sp, -48
80001b54: 83 27 85 01  	lw	a5, 24(a0)
80001b58: 23 30 81 02  	sd	s0, 32(sp)
80001b5c: 03 34 05 01  	ld	s0, 16(a0)
80001b60: 23 34 31 01  	sd	s3, 8(sp)
80001b64: 23 34 11 02  	sd	ra, 40(sp)
80001b68: 23 3c 91 00  	sd	s1, 24(sp)
80001b6c: 23 38 21 01  	sd	s2, 16(sp)
80001b70: b3 09 f4 00  	add	s3, s0, a5
80001b74: 63 50 f0 06  	blez	a5, 0x80001bd4 <fdt_string_list_index+0x84>
80001b78: 13 89 05 00  	mv	s2, a1
80001b7c: 93 04 00 00  	li	s1, 0
80001b80: 6f 00 c0 01  	j	0x80001b9c <fdt_string_list_index+0x4c>
80001b84: ef 60 90 25  	jal	0x800085dc <strlen>
80001b88: 13 05 15 00  	addi	a0, a0, 1
80001b8c: 33 04 a4 00  	add	s0, s0, a0
80001b90: b3 87 89 40  	sub	a5, s3, s0
80001b94: 9b 84 14 00  	addiw	s1, s1, 1
80001b98: 63 5e f0 02  	blez	a5, 0x80001bd4 <fdt_string_list_index+0x84>
80001b9c: 93 05 09 00  	mv	a1, s2
80001ba0: 13 05 04 00  	mv	a0, s0
80001ba4: ef 60 10 26  	jal	0x80008604 <strcmp>
80001ba8: 93 07 05 00  	mv	a5, a0
80001bac: 13 05 04 00  	mv	a0, s0
80001bb0: e3 9a 07 fc  	bnez	a5, 0x80001b84 <fdt_string_list_index+0x34>
80001bb4: 83 30 81 02  	ld	ra, 40(sp)
80001bb8: 03 34 01 02  	ld	s0, 32(sp)
80001bbc: 03 39 01 01  	ld	s2, 16(sp)
80001bc0: 83 39 81 00  	ld	s3, 8(sp)
80001bc4: 13 85 04 00  	mv	a0, s1
80001bc8: 83 34 81 01  	ld	s1, 24(sp)
80001bcc: 13 01 01 03  	addi	sp, sp, 48
80001bd0: 67 80 00 00  	ret
80001bd4: 83 30 81 02  	ld	ra, 40(sp)
80001bd8: 03 34 01 02  	ld	s0, 32(sp)
80001bdc: 93 04 f0 ff  	li	s1, -1
80001be0: 03 39 01 01  	ld	s2, 16(sp)
80001be4: 83 39 81 00  	ld	s3, 8(sp)
80001be8: 13 85 04 00  	mv	a0, s1
80001bec: 83 34 81 01  	ld	s1, 24(sp)
80001bf0: 13 01 01 03  	addi	sp, sp, 48
80001bf4: 67 80 00 00  	ret

0000000080001bf8 <clint_prop>:
80001bf8: 13 01 01 fe  	addi	sp, sp, -32
80001bfc: 23 30 21 01  	sd	s2, 0(sp)
80001c00: 03 39 85 00  	ld	s2, 8(a0)
80001c04: 23 38 81 00  	sd	s0, 16(sp)
80001c08: 23 34 91 00  	sd	s1, 8(sp)
80001c0c: 13 84 05 00  	mv	s0, a1
80001c10: 93 04 05 00  	mv	s1, a0
80001c14: 97 75 00 00  	auipc	a1, 7
80001c18: 93 85 45 57  	addi	a1, a1, 1396
80001c1c: 13 05 09 00  	mv	a0, s2
80001c20: 23 3c 11 00  	sd	ra, 24(sp)
80001c24: ef 60 10 1e  	jal	0x80008604 <strcmp>
80001c28: 63 1c 05 02  	bnez	a0, 0x80001c60 <clint_prop+0x68>
80001c2c: 97 75 00 00  	auipc	a1, 7
80001c30: 93 85 45 21  	addi	a1, a1, 532
80001c34: 13 85 04 00  	mv	a0, s1
80001c38: ef f0 9f f1  	jal	0x80001b50 <fdt_string_list_index>
80001c3c: 63 42 05 02  	bltz	a0, 0x80001c60 <clint_prop+0x68>
80001c40: 93 07 10 00  	li	a5, 1
80001c44: 83 30 81 01  	ld	ra, 24(sp)
80001c48: 23 20 f4 00  	sw	a5, 0(s0)
80001c4c: 03 34 01 01  	ld	s0, 16(sp)
80001c50: 83 34 81 00  	ld	s1, 8(sp)
80001c54: 03 39 01 00  	ld	s2, 0(sp)
80001c58: 13 01 01 02  	addi	sp, sp, 32
80001c5c: 67 80 00 00  	ret
80001c60: 97 75 00 00  	auipc	a1, 7
80001c64: 93 85 05 29  	addi	a1, a1, 656
80001c68: 13 05 09 00  	mv	a0, s2
80001c6c: ef 60 90 19  	jal	0x80008604 <strcmp>
80001c70: 63 10 05 0a  	bnez	a0, 0x80001d10 <clint_prop+0x118>
80001c74: 83 b7 04 00  	ld	a5, 0(s1)
80001c78: 83 b6 04 01  	ld	a3, 16(s1)
80001c7c: 83 b7 07 00  	ld	a5, 0(a5)
80001c80: 23 34 04 00  	sd	zero, 8(s0)
80001c84: 83 a7 07 01  	lw	a5, 16(a5)
80001c88: 63 58 f0 06  	blez	a5, 0x80001cf8 <clint_prop+0x100>
80001c8c: 9b 85 f7 ff  	addiw	a1, a5, -1
80001c90: 93 95 05 02  	slli	a1, a1, 32
80001c94: 93 d5 05 02  	srli	a1, a1, 32
80001c98: 93 85 15 00  	addi	a1, a1, 1
80001c9c: 93 95 25 00  	slli	a1, a1, 2
80001ca0: 37 08 01 ff  	lui	a6, 1044496
80001ca4: 37 05 ff 00  	lui	a0, 4080
80001ca8: b3 85 b6 00  	add	a1, a3, a1
80001cac: 93 07 00 00  	li	a5, 0
80001cb0: 13 08 08 f0  	addi	a6, a6, -256
80001cb4: 13 05 f5 0f  	addi	a0, a0, 255
80001cb8: 03 a7 06 00  	lw	a4, 0(a3)
80001cbc: 13 96 07 02  	slli	a2, a5, 32
80001cc0: 93 86 46 00  	addi	a3, a3, 4
80001cc4: 9b 17 87 00  	slliw	a5, a4, 8
80001cc8: 1b 57 87 00  	srliw	a4, a4, 8
80001ccc: 33 77 a7 00  	and	a4, a4, a0
80001cd0: b3 f7 07 01  	and	a5, a5, a6
80001cd4: b3 e7 e7 00  	or	a5, a5, a4
80001cd8: 1b 97 07 01  	slliw	a4, a5, 16
80001cdc: 9b d7 07 01  	srliw	a5, a5, 16
80001ce0: b3 67 f7 00  	or	a5, a4, a5
80001ce4: 93 97 07 02  	slli	a5, a5, 32
80001ce8: 93 d7 07 02  	srli	a5, a5, 32
80001cec: b3 87 c7 00  	add	a5, a5, a2
80001cf0: e3 94 b6 fc  	bne	a3, a1, 0x80001cb8 <clint_prop+0xc0>
80001cf4: 23 34 f4 00  	sd	a5, 8(s0)
80001cf8: 83 30 81 01  	ld	ra, 24(sp)
80001cfc: 03 34 01 01  	ld	s0, 16(sp)
80001d00: 83 34 81 00  	ld	s1, 8(sp)
80001d04: 03 39 01 00  	ld	s2, 0(sp)
80001d08: 13 01 01 02  	addi	sp, sp, 32
80001d0c: 67 80 00 00  	ret
80001d10: 97 75 00 00  	auipc	a1, 7
80001d14: 93 85 85 48  	addi	a1, a1, 1160
80001d18: 13 05 09 00  	mv	a0, s2
80001d1c: ef 60 90 0e  	jal	0x80008604 <strcmp>
80001d20: e3 1c 05 fc  	bnez	a0, 0x80001cf8 <clint_prop+0x100>
80001d24: 03 b7 04 01  	ld	a4, 16(s1)
80001d28: 83 a7 84 01  	lw	a5, 24(s1)
80001d2c: 83 30 81 01  	ld	ra, 24(sp)
80001d30: 23 38 e4 00  	sd	a4, 16(s0)
80001d34: 23 2c f4 00  	sw	a5, 24(s0)
80001d38: 03 34 01 01  	ld	s0, 16(sp)
80001d3c: 83 34 81 00  	ld	s1, 8(sp)
80001d40: 03 39 01 00  	ld	s2, 0(sp)
80001d44: 13 01 01 02  	addi	sp, sp, 32
80001d48: 67 80 00 00  	ret

0000000080001d4c <plic_prop>:
80001d4c: 13 01 01 fe  	addi	sp, sp, -32
80001d50: 23 30 21 01  	sd	s2, 0(sp)
80001d54: 03 39 85 00  	ld	s2, 8(a0)
80001d58: 23 38 81 00  	sd	s0, 16(sp)
80001d5c: 23 34 91 00  	sd	s1, 8(sp)
80001d60: 13 84 05 00  	mv	s0, a1
80001d64: 93 04 05 00  	mv	s1, a0
80001d68: 97 75 00 00  	auipc	a1, 7
80001d6c: 93 85 05 42  	addi	a1, a1, 1056
80001d70: 13 05 09 00  	mv	a0, s2
80001d74: 23 3c 11 00  	sd	ra, 24(sp)
80001d78: ef 60 d0 08  	jal	0x80008604 <strcmp>
80001d7c: 63 1c 05 02  	bnez	a0, 0x80001db4 <plic_prop+0x68>
80001d80: 97 75 00 00  	auipc	a1, 7
80001d84: 93 85 05 43  	addi	a1, a1, 1072
80001d88: 13 85 04 00  	mv	a0, s1
80001d8c: ef f0 5f dc  	jal	0x80001b50 <fdt_string_list_index>
80001d90: 63 42 05 02  	bltz	a0, 0x80001db4 <plic_prop+0x68>
80001d94: 93 07 10 00  	li	a5, 1
80001d98: 83 30 81 01  	ld	ra, 24(sp)
80001d9c: 23 20 f4 00  	sw	a5, 0(s0)
80001da0: 03 34 01 01  	ld	s0, 16(sp)
80001da4: 83 34 81 00  	ld	s1, 8(sp)
80001da8: 03 39 01 00  	ld	s2, 0(sp)
80001dac: 13 01 01 02  	addi	sp, sp, 32
80001db0: 67 80 00 00  	ret
80001db4: 97 75 00 00  	auipc	a1, 7
80001db8: 93 85 c5 13  	addi	a1, a1, 316
80001dbc: 13 05 09 00  	mv	a0, s2
80001dc0: ef 60 50 04  	jal	0x80008604 <strcmp>
80001dc4: 63 10 05 0a  	bnez	a0, 0x80001e64 <plic_prop+0x118>
80001dc8: 83 b7 04 00  	ld	a5, 0(s1)
80001dcc: 83 b6 04 01  	ld	a3, 16(s1)
80001dd0: 83 b7 07 00  	ld	a5, 0(a5)
80001dd4: 23 34 04 00  	sd	zero, 8(s0)
80001dd8: 83 a7 07 01  	lw	a5, 16(a5)
80001ddc: 63 58 f0 06  	blez	a5, 0x80001e4c <plic_prop+0x100>
80001de0: 9b 85 f7 ff  	addiw	a1, a5, -1
80001de4: 93 95 05 02  	slli	a1, a1, 32
80001de8: 93 d5 05 02  	srli	a1, a1, 32
80001dec: 93 85 15 00  	addi	a1, a1, 1
80001df0: 93 95 25 00  	slli	a1, a1, 2
80001df4: 37 08 01 ff  	lui	a6, 1044496
80001df8: 37 05 ff 00  	lui	a0, 4080
80001dfc: b3 85 b6 00  	add	a1, a3, a1
80001e00: 93 07 00 00  	li	a5, 0
80001e04: 13 08 08 f0  	addi	a6, a6, -256
80001e08: 13 05 f5 0f  	addi	a0, a0, 255
80001e0c: 03 a7 06 00  	lw	a4, 0(a3)
80001e10: 13 96 07 02  	slli	a2, a5, 32
80001e14: 93 86 46 00  	addi	a3, a3, 4
80001e18: 9b 17 87 00  	slliw	a5, a4, 8
80001e1c: 1b 57 87 00  	srliw	a4, a4, 8
80001e20: 33 77 a7 00  	and	a4, a4, a0
80001e24: b3 f7 07 01  	and	a5, a5, a6
80001e28: b3 e7 e7 00  	or	a5, a5, a4
80001e2c: 1b 97 07 01  	slliw	a4, a5, 16
80001e30: 9b d7 07 01  	srliw	a5, a5, 16
80001e34: b3 67 f7 00  	or	a5, a4, a5
80001e38: 93 97 07 02  	slli	a5, a5, 32
80001e3c: 93 d7 07 02  	srli	a5, a5, 32
80001e40: b3 87 c7 00  	add	a5, a5, a2
80001e44: e3 94 b6 fc  	bne	a3, a1, 0x80001e0c <plic_prop+0xc0>
80001e48: 23 34 f4 00  	sd	a5, 8(s0)
80001e4c: 83 30 81 01  	ld	ra, 24(sp)
80001e50: 03 34 01 01  	ld	s0, 16(sp)
80001e54: 83 34 81 00  	ld	s1, 8(sp)
80001e58: 03 39 01 00  	ld	s2, 0(sp)
80001e5c: 13 01 01 02  	addi	sp, sp, 32
80001e60: 67 80 00 00  	ret
80001e64: 97 75 00 00  	auipc	a1, 7
80001e68: 93 85 45 33  	addi	a1, a1, 820
80001e6c: 13 05 09 00  	mv	a0, s2
80001e70: ef 60 40 79  	jal	0x80008604 <strcmp>
80001e74: 63 0c 05 04  	beqz	a0, 0x80001ecc <plic_prop+0x180>
80001e78: 97 75 00 00  	auipc	a1, 7
80001e7c: 93 85 85 34  	addi	a1, a1, 840
80001e80: 13 05 09 00  	mv	a0, s2
80001e84: ef 60 00 78  	jal	0x80008604 <strcmp>
80001e88: e3 12 05 fc  	bnez	a0, 0x80001e4c <plic_prop+0x100>
80001e8c: 83 b7 04 01  	ld	a5, 16(s1)
80001e90: b7 06 01 ff  	lui	a3, 1044496
80001e94: 93 86 06 f0  	addi	a3, a3, -256
80001e98: 03 a7 07 00  	lw	a4, 0(a5)
80001e9c: 9b 17 87 00  	slliw	a5, a4, 8
80001ea0: b3 f7 d7 00  	and	a5, a5, a3
80001ea4: b7 06 ff 00  	lui	a3, 4080
80001ea8: 1b 57 87 00  	srliw	a4, a4, 8
80001eac: 93 86 f6 0f  	addi	a3, a3, 255
80001eb0: 33 77 d7 00  	and	a4, a4, a3
80001eb4: b3 e7 e7 00  	or	a5, a5, a4
80001eb8: 1b 97 07 01  	slliw	a4, a5, 16
80001ebc: 9b d7 07 01  	srliw	a5, a5, 16
80001ec0: b3 67 f7 00  	or	a5, a4, a5
80001ec4: 23 20 f4 02  	sw	a5, 32(s0)
80001ec8: 6f f0 5f f8  	j	0x80001e4c <plic_prop+0x100>
80001ecc: 03 b7 04 01  	ld	a4, 16(s1)
80001ed0: 83 a7 84 01  	lw	a5, 24(s1)
80001ed4: 83 30 81 01  	ld	ra, 24(sp)
80001ed8: 23 38 e4 00  	sd	a4, 16(s0)
80001edc: 23 2c f4 00  	sw	a5, 24(s0)
80001ee0: 03 34 01 01  	ld	s0, 16(sp)
80001ee4: 83 34 81 00  	ld	s1, 8(sp)
80001ee8: 03 39 01 00  	ld	s2, 0(sp)
80001eec: 13 01 01 02  	addi	sp, sp, 32
80001ef0: 67 80 00 00  	ret

0000000080001ef4 <compat_prop>:
80001ef4: 13 01 01 fe  	addi	sp, sp, -32
80001ef8: 23 38 81 00  	sd	s0, 16(sp)
80001efc: 13 04 05 00  	mv	s0, a0
80001f00: 03 35 85 00  	ld	a0, 8(a0)
80001f04: 23 34 91 00  	sd	s1, 8(sp)
80001f08: 93 84 05 00  	mv	s1, a1
80001f0c: 97 75 00 00  	auipc	a1, 7
80001f10: 93 85 c5 27  	addi	a1, a1, 636
80001f14: 23 3c 11 00  	sd	ra, 24(sp)
80001f18: ef 60 c0 6e  	jal	0x80008604 <strcmp>
80001f1c: 63 12 05 02  	bnez	a0, 0x80001f40 <compat_prop+0x4c>
80001f20: 83 b5 04 00  	ld	a1, 0(s1)
80001f24: 13 05 04 00  	mv	a0, s0
80001f28: ef f0 9f c2  	jal	0x80001b50 <fdt_string_list_index>
80001f2c: 63 4a 05 00  	bltz	a0, 0x80001f40 <compat_prop+0x4c>
80001f30: 83 a7 84 00  	lw	a5, 8(s1)
80001f34: 03 a7 c4 00  	lw	a4, 12(s1)
80001f38: 63 d4 e7 00  	bge	a5, a4, 0x80001f40 <compat_prop+0x4c>
80001f3c: 23 a6 f4 00  	sw	a5, 12(s1)
80001f40: 83 30 81 01  	ld	ra, 24(sp)
80001f44: 03 34 01 01  	ld	s0, 16(sp)
80001f48: 83 34 81 00  	ld	s1, 8(sp)
80001f4c: 13 01 01 02  	addi	sp, sp, 32
80001f50: 67 80 00 00  	ret

0000000080001f54 <query_mem>:
80001f54: 13 01 01 fb  	addi	sp, sp, -80
80001f58: 97 f7 ff ff  	auipc	a5, 1048575
80001f5c: 93 87 c7 08  	addi	a5, a5, 140
80001f60: 23 3c f1 00  	sd	a5, 24(sp)
80001f64: 97 f7 ff ff  	auipc	a5, 1048575
80001f68: 93 87 87 89  	addi	a5, a5, -1896
80001f6c: 23 30 f1 02  	sd	a5, 32(sp)
80001f70: 93 05 81 01  	addi	a1, sp, 24
80001f74: 97 e7 ff ff  	auipc	a5, 1048574
80001f78: 93 87 87 6a  	addi	a5, a5, 1704
80001f7c: 23 34 f1 02  	sd	a5, 40(sp)
80001f80: 23 34 11 04  	sd	ra, 72(sp)
80001f84: 97 b7 00 00  	auipc	a5, 11
80001f88: 23 ba 07 0a  	sd	zero, 180(a5)
80001f8c: 23 38 01 02  	sd	zero, 48(sp)
80001f90: 23 3c 21 02  	sd	sp, 56(sp)
80001f94: ef f0 5f 8b  	jal	0x80001848 <fdt_scan>
80001f98: 97 b7 00 00  	auipc	a5, 11
80001f9c: 83 b7 07 0a  	ld	a5, 160(a5)
80001fa0: 63 88 07 00  	beqz	a5, 0x80001fb0 <query_mem+0x5c>
80001fa4: 83 30 81 04  	ld	ra, 72(sp)
80001fa8: 13 01 01 05  	addi	sp, sp, 80
80001fac: 67 80 00 00  	ret
80001fb0: 17 75 00 00  	auipc	a0, 7
80001fb4: 13 05 85 ef  	addi	a0, a0, -264
80001fb8: 97 76 00 00  	auipc	a3, 7
80001fbc: 93 86 86 21  	addi	a3, a3, 536
80001fc0: 13 06 10 0d  	li	a2, 209
80001fc4: 97 75 00 00  	auipc	a1, 7
80001fc8: 93 85 c5 ec  	addi	a1, a1, -308
80001fcc: ef 00 00 5a  	jal	0x8000256c <printm>
80001fd0: 37 05 01 00  	lui	a0, 16
80001fd4: 13 05 f5 ff  	addi	a0, a0, -1
80001fd8: ef 00 c0 62  	jal	0x80002604 <poweroff>

0000000080001fdc <query_harts>:
80001fdc: 13 01 01 fa  	addi	sp, sp, -96
80001fe0: 17 e7 ff ff  	auipc	a4, 1048574
80001fe4: 13 07 47 4c  	addi	a4, a4, 1220
80001fe8: 23 34 e1 02  	sd	a4, 40(sp)
80001fec: 17 f7 ff ff  	auipc	a4, 1048575
80001ff0: 13 07 87 8f  	addi	a4, a4, -1800
80001ff4: 23 38 e1 02  	sd	a4, 48(sp)
80001ff8: 17 f7 ff ff  	auipc	a4, 1048575
80001ffc: 13 07 c7 46  	addi	a4, a4, 1132
80002000: 93 07 81 00  	addi	a5, sp, 8
80002004: 23 3c e1 02  	sd	a4, 56(sp)
80002008: 93 05 81 02  	addi	a1, sp, 40
8000200c: 17 e7 ff ff  	auipc	a4, 1048574
80002010: 13 07 07 4c  	addi	a4, a4, 1216
80002014: 23 3c 11 04  	sd	ra, 88(sp)
80002018: 23 34 01 00  	sd	zero, 8(sp)
8000201c: 23 30 e1 04  	sd	a4, 64(sp)
80002020: 23 34 f1 04  	sd	a5, 72(sp)
80002024: 23 38 01 00  	sd	zero, 16(sp)
80002028: 23 3c 01 00  	sd	zero, 24(sp)
8000202c: 23 30 01 02  	sd	zero, 32(sp)
80002030: ef f0 9f 81  	jal	0x80001848 <fdt_scan>
80002034: 73 27 40 f1  	csrr	a4, mhartid
80002038: 97 b7 00 00  	auipc	a5, 11
8000203c: 83 b7 87 fe  	ld	a5, -24(a5)
80002040: b3 d7 e7 00  	srl	a5, a5, a4
80002044: 63 88 07 00  	beqz	a5, 0x80002054 <query_harts+0x78>
80002048: 83 30 81 05  	ld	ra, 88(sp)
8000204c: 13 01 01 06  	addi	sp, sp, 96
80002050: 67 80 00 00  	ret
80002054: 17 75 00 00  	auipc	a0, 7
80002058: 13 05 45 e5  	addi	a0, a0, -428
8000205c: 97 76 00 00  	auipc	a3, 7
80002060: 93 86 46 18  	addi	a3, a3, 388
80002064: 13 06 d0 12  	li	a2, 301
80002068: 97 75 00 00  	auipc	a1, 7
8000206c: 93 85 85 e2  	addi	a1, a1, -472
80002070: ef 00 c0 4f  	jal	0x8000256c <printm>
80002074: 37 05 01 00  	lui	a0, 16
80002078: 13 05 f5 ff  	addi	a0, a0, -1
8000207c: ef 00 80 58  	jal	0x80002604 <poweroff>

0000000080002080 <query_clint>:
80002080: 13 01 01 fa  	addi	sp, sp, -96
80002084: 97 e7 ff ff  	auipc	a5, 1048574
80002088: 93 87 87 47  	addi	a5, a5, 1144
8000208c: 23 34 f1 02  	sd	a5, 40(sp)
80002090: 97 07 00 00  	auipc	a5, 0
80002094: 93 87 87 b6  	addi	a5, a5, -1176
80002098: 23 38 f1 02  	sd	a5, 48(sp)
8000209c: 97 f7 ff ff  	auipc	a5, 1048575
800020a0: 93 87 87 f5  	addi	a5, a5, -168
800020a4: 23 3c f1 02  	sd	a5, 56(sp)
800020a8: 93 05 81 02  	addi	a1, sp, 40
800020ac: 93 07 81 00  	addi	a5, sp, 8
800020b0: 23 34 f1 04  	sd	a5, 72(sp)
800020b4: 23 3c 11 04  	sd	ra, 88(sp)
800020b8: 23 30 01 04  	sd	zero, 64(sp)
800020bc: 23 22 01 02  	sw	zero, 36(sp)
800020c0: ef f0 8f f8  	jal	0x80001848 <fdt_scan>
800020c4: 83 27 41 02  	lw	a5, 36(sp)
800020c8: 63 88 07 00  	beqz	a5, 0x800020d8 <query_clint+0x58>
800020cc: 83 30 81 05  	ld	ra, 88(sp)
800020d0: 13 01 01 06  	addi	sp, sp, 96
800020d4: 67 80 00 00  	ret
800020d8: 17 75 00 00  	auipc	a0, 7
800020dc: 13 05 05 dd  	addi	a0, a0, -560
800020e0: 97 76 00 00  	auipc	a3, 7
800020e4: 93 86 86 12  	addi	a3, a3, 296
800020e8: 13 06 a0 17  	li	a2, 378
800020ec: 97 75 00 00  	auipc	a1, 7
800020f0: 93 85 45 da  	addi	a1, a1, -604
800020f4: ef 00 80 47  	jal	0x8000256c <printm>
800020f8: 37 05 01 00  	lui	a0, 16
800020fc: 13 05 f5 ff  	addi	a0, a0, -1
80002100: ef 00 40 50  	jal	0x80002604 <poweroff>

0000000080002104 <query_plic>:
80002104: 13 01 01 fa  	addi	sp, sp, -96
80002108: 97 e7 ff ff  	auipc	a5, 1048574
8000210c: 93 87 47 40  	addi	a5, a5, 1028
80002110: 23 30 f1 00  	sd	a5, 0(sp)
80002114: 97 07 00 00  	auipc	a5, 0
80002118: 93 87 87 c3  	addi	a5, a5, -968
8000211c: 23 34 f1 00  	sd	a5, 8(sp)
80002120: 97 f7 ff ff  	auipc	a5, 1048575
80002124: 93 87 87 07  	addi	a5, a5, 120
80002128: 23 38 f1 00  	sd	a5, 16(sp)
8000212c: 93 05 01 00  	mv	a1, sp
80002130: 93 07 81 02  	addi	a5, sp, 40
80002134: 23 3c 11 04  	sd	ra, 88(sp)
80002138: 23 3c 01 00  	sd	zero, 24(sp)
8000213c: 23 30 f1 02  	sd	a5, 32(sp)
80002140: 23 22 01 04  	sw	zero, 68(sp)
80002144: ef f0 4f f0  	jal	0x80001848 <fdt_scan>
80002148: 83 30 81 05  	ld	ra, 88(sp)
8000214c: 13 01 01 06  	addi	sp, sp, 96
80002150: 67 80 00 00  	ret

0000000080002154 <filter_plic>:
80002154: 13 01 01 fa  	addi	sp, sp, -96
80002158: 97 e7 ff ff  	auipc	a5, 1048574
8000215c: 93 87 47 3b  	addi	a5, a5, 948
80002160: 23 30 f1 00  	sd	a5, 0(sp)
80002164: 97 07 00 00  	auipc	a5, 0
80002168: 93 87 87 be  	addi	a5, a5, -1048
8000216c: 23 34 f1 00  	sd	a5, 8(sp)
80002170: 97 e7 ff ff  	auipc	a5, 1048574
80002174: 93 87 c7 3a  	addi	a5, a5, 940
80002178: 23 38 f1 00  	sd	a5, 16(sp)
8000217c: 93 05 01 00  	mv	a1, sp
80002180: 93 07 81 02  	addi	a5, sp, 40
80002184: 23 3c 11 04  	sd	ra, 88(sp)
80002188: 23 3c 01 00  	sd	zero, 24(sp)
8000218c: 23 30 f1 02  	sd	a5, 32(sp)
80002190: 23 22 01 04  	sw	zero, 68(sp)
80002194: ef f0 4f eb  	jal	0x80001848 <fdt_scan>
80002198: 83 30 81 05  	ld	ra, 88(sp)
8000219c: 13 01 01 06  	addi	sp, sp, 96
800021a0: 67 80 00 00  	ret

00000000800021a4 <filter_compat>:
800021a4: 13 01 01 fb  	addi	sp, sp, -80
800021a8: 17 e7 ff ff  	auipc	a4, 1048574
800021ac: 13 07 07 40  	addi	a4, a4, 1024
800021b0: 93 87 05 00  	mv	a5, a1
800021b4: 23 3c e1 00  	sd	a4, 24(sp)
800021b8: 17 07 00 00  	auipc	a4, 0
800021bc: 13 07 c7 d3  	addi	a4, a4, -708
800021c0: 23 30 e1 02  	sd	a4, 32(sp)
800021c4: 23 34 f1 00  	sd	a5, 8(sp)
800021c8: 17 e7 ff ff  	auipc	a4, 1048574
800021cc: 13 07 07 3f  	addi	a4, a4, 1008
800021d0: 93 07 70 3e  	li	a5, 999
800021d4: 23 38 e1 02  	sd	a4, 48(sp)
800021d8: 93 05 81 01  	addi	a1, sp, 24
800021dc: 13 07 81 00  	addi	a4, sp, 8
800021e0: 93 97 07 02  	slli	a5, a5, 32
800021e4: 23 34 11 04  	sd	ra, 72(sp)
800021e8: 23 34 01 02  	sd	zero, 40(sp)
800021ec: 23 3c e1 02  	sd	a4, 56(sp)
800021f0: 23 38 f1 00  	sd	a5, 16(sp)
800021f4: ef f0 4f e5  	jal	0x80001848 <fdt_scan>
800021f8: 83 30 81 04  	ld	ra, 72(sp)
800021fc: 13 01 01 05  	addi	sp, sp, 80
80002200: 67 80 00 00  	ret

0000000080002204 <query_chosen>:
80002204: 13 01 01 fb  	addi	sp, sp, -80
80002208: 97 e7 ff ff  	auipc	a5, 1048574
8000220c: 93 87 87 69  	addi	a5, a5, 1688
80002210: 23 3c f1 00  	sd	a5, 24(sp)
80002214: 97 e7 ff ff  	auipc	a5, 1048574
80002218: 93 87 07 3d  	addi	a5, a5, 976
8000221c: 23 38 f1 02  	sd	a5, 48(sp)
80002220: 93 05 81 01  	addi	a1, sp, 24
80002224: 97 f7 ff ff  	auipc	a5, 1048575
80002228: 93 87 c7 48  	addi	a5, a5, 1164
8000222c: 23 34 11 04  	sd	ra, 72(sp)
80002230: 23 30 f1 02  	sd	a5, 32(sp)
80002234: 23 34 01 02  	sd	zero, 40(sp)
80002238: 23 30 01 00  	sd	zero, 0(sp)
8000223c: 23 3c 21 02  	sd	sp, 56(sp)
80002240: 23 34 01 00  	sd	zero, 8(sp)
80002244: 23 38 01 00  	sd	zero, 16(sp)
80002248: ef f0 0f e0  	jal	0x80001848 <fdt_scan>
8000224c: 83 37 81 00  	ld	a5, 8(sp)
80002250: 83 30 81 04  	ld	ra, 72(sp)
80002254: 17 b7 00 00  	auipc	a4, 11
80002258: 23 3e f7 de  	sd	a5, -516(a4)
8000225c: 83 37 01 01  	ld	a5, 16(sp)
80002260: 17 b7 00 00  	auipc	a4, 11
80002264: 23 30 f7 de  	sd	a5, -544(a4)
80002268: 13 01 01 05  	addi	sp, sp, 80
8000226c: 67 80 00 00  	ret

0000000080002270 <filter_harts>:
80002270: 13 01 01 fa  	addi	sp, sp, -96
80002274: 17 e7 ff ff  	auipc	a4, 1048574
80002278: 13 07 07 39  	addi	a4, a4, 912
8000227c: 23 34 e1 02  	sd	a4, 40(sp)
80002280: 17 f7 ff ff  	auipc	a4, 1048575
80002284: 13 07 c7 8a  	addi	a4, a4, -1876
80002288: 23 3c 11 04  	sd	ra, 88(sp)
8000228c: 23 38 e1 02  	sd	a4, 48(sp)
80002290: 17 f7 ff ff  	auipc	a4, 1048575
80002294: 13 07 87 2b  	addi	a4, a4, 696
80002298: 93 87 05 00  	mv	a5, a1
8000229c: 23 3c e1 02  	sd	a4, 56(sp)
800022a0: 23 b0 05 00  	sd	zero, 0(a1)
800022a4: 13 07 81 00  	addi	a4, sp, 8
800022a8: 93 05 81 02  	addi	a1, sp, 40
800022ac: 23 30 01 04  	sd	zero, 64(sp)
800022b0: 23 34 e1 04  	sd	a4, 72(sp)
800022b4: 23 30 f1 02  	sd	a5, 32(sp)
800022b8: ef f0 0f d9  	jal	0x80001848 <fdt_scan>
800022bc: 83 30 81 05  	ld	ra, 88(sp)
800022c0: 13 01 01 06  	addi	sp, sp, 96
800022c4: 67 80 00 00  	ret

00000000800022c8 <send_ipi_many>:
800022c8: 13 83 05 00  	mv	t1, a1
800022cc: 17 b8 00 00  	auipc	a6, 11
800022d0: 03 38 48 d5  	ld	a6, -684(a6)
800022d4: 63 0e 05 00  	beqz	a0, 0x800022f0 <send_ipi_many+0x28>
800022d8: 73 26 10 34  	csrr	a2, mepc
800022dc: b7 05 02 00  	lui	a1, 32
800022e0: f3 a6 05 30  	csrrs	a3, mstatus, a1
800022e4: 83 37 05 00  	ld	a5, 0(a0)
800022e8: 73 90 06 30  	csrw	mstatus, a3
800022ec: 33 78 f8 00  	and	a6, a6, a5
800022f0: 93 06 08 00  	mv	a3, a6
800022f4: 93 07 00 00  	li	a5, 0
800022f8: 63 08 08 16  	beqz	a6, 0x80002468 <send_ipi_many+0x1a0>
800022fc: 13 01 01 fe  	addi	sp, sp, -32
80002300: 23 3c 81 00  	sd	s0, 24(sp)
80002304: b7 18 00 00  	lui	a7, 1
80002308: 13 04 01 02  	addi	s0, sp, 32
8000230c: b3 08 14 01  	add	a7, s0, a7
80002310: 37 f7 ff ff  	lui	a4, 1048575
80002314: 17 be 00 00  	auipc	t3, 11
80002318: 13 0e 4e d0  	addi	t3, t3, -764
8000231c: b3 f8 e8 00  	and	a7, a7, a4
80002320: 93 0e 10 00  	li	t4, 1
80002324: f3 25 40 f1  	csrr	a1, mhartid
80002328: 6f 00 00 01  	j	0x80002338 <send_ipi_many+0x70>
8000232c: 93 d6 16 00  	srli	a3, a3, 1
80002330: 93 87 17 00  	addi	a5, a5, 1
80002334: 63 84 06 06  	beqz	a3, 0x8000239c <send_ipi_many+0xd4>
80002338: 13 f7 16 00  	andi	a4, a3, 1
8000233c: e3 08 07 fe  	beqz	a4, 0x8000232c <send_ipi_many+0x64>
80002340: 03 37 0e 00  	ld	a4, 0(t3)
80002344: 33 86 b7 40  	sub	a2, a5, a1
80002348: 13 16 c6 00  	slli	a2, a2, 12
8000234c: 33 57 f7 40  	sra	a4, a4, a5
80002350: 13 05 06 fc  	addi	a0, a2, -64
80002354: 13 77 17 00  	andi	a4, a4, 1
80002358: 33 85 a8 00  	add	a0, a7, a0
8000235c: e3 18 07 fc  	bnez	a4, 0x8000232c <send_ipi_many+0x64>
80002360: 03 27 85 00  	lw	a4, 8(a0)
80002364: 1b 07 07 00  	sext.w	a4, a4
80002368: 23 26 e4 fe  	sw	a4, -20(s0)
8000236c: 03 27 c4 fe  	lw	a4, -20(s0)
80002370: 1b 07 07 00  	sext.w	a4, a4
80002374: 33 67 e3 00  	or	a4, t1, a4
80002378: 23 24 e5 00  	sw	a4, 8(a0)
8000237c: 03 27 c4 fe  	lw	a4, -20(s0)
80002380: 0f 00 f0 0f  	fence
80002384: 33 06 16 01  	add	a2, a2, a7
80002388: 03 37 06 fc  	ld	a4, -64(a2)
8000238c: 93 d6 16 00  	srli	a3, a3, 1
80002390: 93 87 17 00  	addi	a5, a5, 1
80002394: 23 20 d7 01  	sw	t4, 0(a4)
80002398: e3 90 06 fa  	bnez	a3, 0x80002338 <send_ipi_many+0x70>
8000239c: 93 07 10 00  	li	a5, 1
800023a0: 63 0e f3 0a  	beq	t1, a5, 0x8000245c <send_ipi_many+0x194>
800023a4: b7 18 00 00  	lui	a7, 1
800023a8: b3 08 14 01  	add	a7, s0, a7
800023ac: b7 f7 ff ff  	lui	a5, 1048575
800023b0: 73 23 40 f1  	csrr	t1, mhartid
800023b4: 13 06 00 00  	li	a2, 0
800023b8: b3 f8 f8 00  	and	a7, a7, a5
800023bc: 13 0e 03 00  	mv	t3, t1
800023c0: 6f 00 00 01  	j	0x800023d0 <send_ipi_many+0x108>
800023c4: 13 58 18 00  	srli	a6, a6, 1
800023c8: 93 86 16 00  	addi	a3, a3, 1
800023cc: 63 08 08 06  	beqz	a6, 0x8000243c <send_ipi_many+0x174>
800023d0: 93 77 18 00  	andi	a5, a6, 1
800023d4: e3 88 07 fe  	beqz	a5, 0x800023c4 <send_ipi_many+0xfc>
800023d8: b3 87 66 40  	sub	a5, a3, t1
800023dc: 93 97 c7 00  	slli	a5, a5, 12
800023e0: b3 87 17 01  	add	a5, a5, a7
800023e4: 83 b7 07 fc  	ld	a5, -64(a5)
800023e8: 83 a7 07 00  	lw	a5, 0(a5)
800023ec: 9b 87 07 00  	sext.w	a5, a5
800023f0: e3 8a 07 fc  	beqz	a5, 0x800023c4 <send_ipi_many+0xfc>
800023f4: 33 85 c6 41  	sub	a0, a3, t3
800023f8: 13 15 c5 00  	slli	a0, a0, 12
800023fc: 33 05 15 01  	add	a0, a0, a7
80002400: 03 b7 08 fc  	ld	a4, -64(a7)
80002404: 83 35 05 fc  	ld	a1, -64(a0)
80002408: 83 27 07 00  	lw	a5, 0(a4)
8000240c: 9b 87 07 00  	sext.w	a5, a5
80002410: 23 24 f4 fe  	sw	a5, -24(s0)
80002414: 23 20 07 00  	sw	zero, 0(a4)
80002418: 03 27 84 fe  	lw	a4, -24(s0)
8000241c: 83 a7 05 00  	lw	a5, 0(a1)
80002420: 1b 07 07 00  	sext.w	a4, a4
80002424: 9b 87 07 00  	sext.w	a5, a5
80002428: 33 66 c7 00  	or	a2, a4, a2
8000242c: e3 9a 07 fc  	bnez	a5, 0x80002400 <send_ipi_many+0x138>
80002430: 13 58 18 00  	srli	a6, a6, 1
80002434: 93 86 16 00  	addi	a3, a3, 1
80002438: e3 1c 08 f8  	bnez	a6, 0x800023d0 <send_ipi_many+0x108>
8000243c: 63 00 06 02  	beqz	a2, 0x8000245c <send_ipi_many+0x194>
80002440: b7 17 00 00  	lui	a5, 1
80002444: b3 07 f4 00  	add	a5, s0, a5
80002448: 37 f7 ff ff  	lui	a4, 1048575
8000244c: b3 f7 e7 00  	and	a5, a5, a4
80002450: 83 b7 07 fc  	ld	a5, -64(a5)
80002454: 23 a0 c7 00  	sw	a2, 0(a5)
80002458: 0f 00 f0 0f  	fence
8000245c: 03 34 81 01  	ld	s0, 24(sp)
80002460: 13 01 01 02  	addi	sp, sp, 32
80002464: 67 80 00 00  	ret
80002468: 67 80 00 00  	ret

000000008000246c <mcall_console_putchar>:
8000246c: 13 01 01 ff  	addi	sp, sp, -16
80002470: 23 34 11 00  	sd	ra, 8(sp)
80002474: 97 b7 00 00  	auipc	a5, 11
80002478: 83 b7 47 bf  	ld	a5, -1036(a5)
8000247c: 63 8c 07 00  	beqz	a5, 0x80002494 <mcall_console_putchar+0x28>
80002480: ef 00 50 59  	jal	0x80003214 <uart_putchar>
80002484: 83 30 81 00  	ld	ra, 8(sp)
80002488: 13 05 00 00  	li	a0, 0
8000248c: 13 01 01 01  	addi	sp, sp, 16
80002490: 67 80 00 00  	ret
80002494: 97 b7 00 00  	auipc	a5, 11
80002498: 83 b7 c7 bd  	ld	a5, -1060(a5)
8000249c: 63 8c 07 00  	beqz	a5, 0x800024b4 <mcall_console_putchar+0x48>
800024a0: ef 10 00 0b  	jal	0x80003550 <uart16550_putchar>
800024a4: 83 30 81 00  	ld	ra, 8(sp)
800024a8: 13 05 00 00  	li	a0, 0
800024ac: 13 01 01 01  	addi	sp, sp, 16
800024b0: 67 80 00 00  	ret
800024b4: 97 b7 00 00  	auipc	a5, 11
800024b8: 83 b7 47 bc  	ld	a5, -1084(a5)
800024bc: 63 8c 07 00  	beqz	a5, 0x800024d4 <mcall_console_putchar+0x68>
800024c0: ef 10 c0 24  	jal	0x8000370c <uart_litex_putchar>
800024c4: 83 30 81 00  	ld	ra, 8(sp)
800024c8: 13 05 00 00  	li	a0, 0
800024cc: 13 01 01 01  	addi	sp, sp, 16
800024d0: 67 80 00 00  	ret
800024d4: 97 b7 00 00  	auipc	a5, 11
800024d8: 83 b7 47 b8  	ld	a5, -1148(a5)
800024dc: e3 84 07 fa  	beqz	a5, 0x80002484 <mcall_console_putchar+0x18>
800024e0: ef 00 d0 2d  	jal	0x80002fbc <htif_console_putchar>
800024e4: 6f f0 1f fa  	j	0x80002484 <mcall_console_putchar+0x18>

00000000800024e8 <putstring>:
800024e8: 13 01 01 ff  	addi	sp, sp, -16
800024ec: 23 30 81 00  	sd	s0, 0(sp)
800024f0: 23 34 11 00  	sd	ra, 8(sp)
800024f4: 13 04 05 00  	mv	s0, a0
800024f8: 03 45 05 00  	lbu	a0, 0(a0)
800024fc: 63 0a 05 00  	beqz	a0, 0x80002510 <putstring+0x28>
80002500: 13 04 14 00  	addi	s0, s0, 1
80002504: ef f0 9f f6  	jal	0x8000246c <mcall_console_putchar>
80002508: 03 45 04 00  	lbu	a0, 0(s0)
8000250c: e3 1a 05 fe  	bnez	a0, 0x80002500 <putstring+0x18>
80002510: 83 30 81 00  	ld	ra, 8(sp)
80002514: 03 34 01 00  	ld	s0, 0(sp)
80002518: 13 01 01 01  	addi	sp, sp, 16
8000251c: 67 80 00 00  	ret

0000000080002520 <vprintm>:
80002520: 13 01 01 ef  	addi	sp, sp, -272
80002524: 13 06 05 00  	mv	a2, a0
80002528: 93 86 05 00  	mv	a3, a1
8000252c: 13 05 01 00  	mv	a0, sp
80002530: 93 05 00 10  	li	a1, 256
80002534: 23 34 11 10  	sd	ra, 264(sp)
80002538: 23 30 81 10  	sd	s0, 256(sp)
8000253c: ef 50 50 40  	jal	0x80008140 <vsnprintf>
80002540: 03 45 01 00  	lbu	a0, 0(sp)
80002544: 63 0c 05 00  	beqz	a0, 0x8000255c <vprintm+0x3c>
80002548: 13 04 01 00  	mv	s0, sp
8000254c: 13 04 14 00  	addi	s0, s0, 1
80002550: ef f0 df f1  	jal	0x8000246c <mcall_console_putchar>
80002554: 03 45 04 00  	lbu	a0, 0(s0)
80002558: e3 1a 05 fe  	bnez	a0, 0x8000254c <vprintm+0x2c>
8000255c: 83 30 81 10  	ld	ra, 264(sp)
80002560: 03 34 01 10  	ld	s0, 256(sp)
80002564: 13 01 01 11  	addi	sp, sp, 272
80002568: 67 80 00 00  	ret

000000008000256c <printm>:
8000256c: 13 01 01 fa  	addi	sp, sp, -96
80002570: 13 03 81 02  	addi	t1, sp, 40
80002574: 23 34 b1 02  	sd	a1, 40(sp)
80002578: 93 05 03 00  	mv	a1, t1
8000257c: 23 3c 11 00  	sd	ra, 24(sp)
80002580: 23 38 c1 02  	sd	a2, 48(sp)
80002584: 23 3c d1 02  	sd	a3, 56(sp)
80002588: 23 30 e1 04  	sd	a4, 64(sp)
8000258c: 23 34 f1 04  	sd	a5, 72(sp)
80002590: 23 38 01 05  	sd	a6, 80(sp)
80002594: 23 3c 11 05  	sd	a7, 88(sp)
80002598: 23 34 61 00  	sd	t1, 8(sp)
8000259c: ef f0 5f f8  	jal	0x80002520 <vprintm>
800025a0: 83 30 81 01  	ld	ra, 24(sp)
800025a4: 13 01 01 06  	addi	sp, sp, 96
800025a8: 67 80 00 00  	ret

00000000800025ac <redirect_trap>:
800025ac: 73 10 36 14  	csrw	stval, a2
800025b0: 73 10 15 14  	csrw	sepc, a0
800025b4: f3 27 20 34  	csrr	a5, mcause
800025b8: 73 90 27 14  	csrw	scause, a5
800025bc: f3 27 50 10  	csrr	a5, stvec
800025c0: 73 90 17 34  	csrw	mepc, a5
800025c4: 93 97 45 00  	slli	a5, a1, 4
800025c8: 13 d7 35 00  	srli	a4, a1, 3
800025cc: 13 77 07 10  	andi	a4, a4, 256
800025d0: 93 f7 07 02  	andi	a5, a5, 32
800025d4: 93 f5 d5 ed  	andi	a1, a1, -291
800025d8: b3 e7 e7 00  	or	a5, a5, a4
800025dc: 37 17 00 00  	lui	a4, 1
800025e0: b3 e7 b7 00  	or	a5, a5, a1
800025e4: 13 07 07 80  	addi	a4, a4, -2048
800025e8: b3 e7 e7 00  	or	a5, a5, a4
800025ec: 73 90 07 30  	csrw	mstatus, a5
800025f0: 6f d0 9f be  	j	0x800001d8 <__redirect_trap>

00000000800025f4 <pmp_trap>:
800025f4: 13 05 06 00  	mv	a0, a2
800025f8: f3 25 00 30  	csrr	a1, mstatus
800025fc: 73 26 30 34  	csrr	a2, mtval
80002600: 6f f0 df fa  	j	0x800025ac <redirect_trap>

0000000080002604 <poweroff>:
80002604: 13 01 01 ff  	addi	sp, sp, -16
80002608: 23 30 81 00  	sd	s0, 0(sp)
8000260c: 13 04 05 00  	mv	s0, a0
80002610: 17 75 00 00  	auipc	a0, 7
80002614: 13 05 85 c0  	addi	a0, a0, -1016
80002618: 23 34 11 00  	sd	ra, 8(sp)
8000261c: ef f0 1f f5  	jal	0x8000256c <printm>
80002620: 13 05 04 00  	mv	a0, s0
80002624: ef 10 40 28  	jal	0x800038a8 <finisher_exit>
80002628: 97 b7 00 00  	auipc	a5, 11
8000262c: 83 b7 07 a3  	ld	a5, -1488(a5)
80002630: 63 84 07 00  	beqz	a5, 0x80002638 <poweroff+0x34>
80002634: ef 00 50 21  	jal	0x80003048 <htif_poweroff>
80002638: 93 05 80 00  	li	a1, 8
8000263c: 13 05 00 00  	li	a0, 0
80002640: ef f0 9f c8  	jal	0x800022c8 <send_ipi_many>
80002644: 73 00 50 10  	wfi	
80002648: 6f f0 df ff  	j	0x80002644 <poweroff+0x40>

000000008000264c <bad_trap>:
8000264c: 13 01 01 ff  	addi	sp, sp, -16
80002650: 23 34 11 00  	sd	ra, 8(sp)
80002654: 13 07 06 00  	mv	a4, a2
80002658: f3 26 20 34  	csrr	a3, mcause
8000265c: 17 75 00 00  	auipc	a0, 7
80002660: 13 05 45 be  	addi	a0, a0, -1052
80002664: 13 06 60 01  	li	a2, 22
80002668: 97 75 00 00  	auipc	a1, 7
8000266c: 93 85 05 bc  	addi	a1, a1, -1088
80002670: ef f0 df ef  	jal	0x8000256c <printm>
80002674: 37 05 01 00  	lui	a0, 16
80002678: 13 05 f5 ff  	addi	a0, a0, -1
8000267c: ef f0 9f f8  	jal	0x80002604 <poweroff>

0000000080002680 <trap_from_machine_mode>:
80002680: 13 01 01 ff  	addi	sp, sp, -16
80002684: 23 34 11 00  	sd	ra, 8(sp)
80002688: f3 27 20 34  	csrr	a5, mcause
8000268c: 13 07 f0 00  	li	a4, 15
80002690: 63 66 f7 08  	bltu	a4, a5, 0x8000271c <trap_from_machine_mode+0x9c>
80002694: 17 68 00 00  	auipc	a6, 6
80002698: 13 08 08 47  	addi	a6, a6, 1136
8000269c: 93 96 27 00  	slli	a3, a5, 2
800026a0: b3 86 06 01  	add	a3, a3, a6
800026a4: 03 a7 06 00  	lw	a4, 0(a3)
800026a8: 33 07 07 01  	add	a4, a4, a6
800026ac: 67 00 07 00  	jr	a4
800026b0: 73 27 00 30  	csrr	a4, mstatus
800026b4: 93 16 e7 02  	slli	a3, a4, 46
800026b8: b7 05 02 00  	lui	a1, 32
800026bc: 63 d2 06 06  	bgez	a3, 0x80002720 <trap_from_machine_mode+0xa0>
800026c0: 03 37 85 05  	ld	a4, 88(a0)
800026c4: b7 06 0a 00  	lui	a3, 160
800026c8: 63 00 d7 02  	beq	a4, a3, 0x800026e8 <trap_from_machine_mode+0x68>
800026cc: 63 1a b7 04  	bne	a4, a1, 0x80002720 <trap_from_machine_mode+0xa0>
800026d0: 73 26 30 34  	csrr	a2, mtval
800026d4: 83 35 85 06  	ld	a1, 104(a0)
800026d8: 83 30 81 00  	ld	ra, 8(sp)
800026dc: 03 35 05 06  	ld	a0, 96(a0)
800026e0: 13 01 01 01  	addi	sp, sp, 16
800026e4: 6f f0 9f ec  	j	0x800025ac <redirect_trap>
800026e8: 13 07 d0 00  	li	a4, 13
800026ec: 63 84 e7 02  	beq	a5, a4, 0x80002714 <trap_from_machine_mode+0x94>
800026f0: 13 07 50 00  	li	a4, 5
800026f4: 63 96 e7 02  	bne	a5, a4, 0x80002720 <trap_from_machine_mode+0xa0>
800026f8: 73 d0 20 34  	csrwi	mcause, 1
800026fc: 73 26 30 34  	csrr	a2, mtval
80002700: 83 35 85 06  	ld	a1, 104(a0)
80002704: 83 30 81 00  	ld	ra, 8(sp)
80002708: 03 35 05 06  	ld	a0, 96(a0)
8000270c: 13 01 01 01  	addi	sp, sp, 16
80002710: 6f f0 df e9  	j	0x800025ac <redirect_trap>
80002714: 73 50 26 34  	csrwi	mcause, 12
80002718: 6f f0 9f fb  	j	0x800026d0 <trap_from_machine_mode+0x50>
8000271c: ef f0 1f f3  	jal	0x8000264c <bad_trap>
80002720: 93 85 07 00  	mv	a1, a5
80002724: ef f0 9f f2  	jal	0x8000264c <bad_trap>

0000000080002728 <mcall_trap>:
80002728: 13 01 01 fe  	addi	sp, sp, -32
8000272c: 23 38 81 00  	sd	s0, 16(sp)
80002730: 23 34 91 00  	sd	s1, 8(sp)
80002734: 23 3c 11 00  	sd	ra, 24(sp)
80002738: 13 04 01 02  	addi	s0, sp, 32
8000273c: 93 04 05 00  	mv	s1, a0
80002740: 13 06 46 00  	addi	a2, a2, 4
80002744: 73 10 16 34  	csrw	mepc, a2
80002748: 83 37 85 08  	ld	a5, 136(a0)
8000274c: 13 07 80 00  	li	a4, 8
80002750: 03 35 05 05  	ld	a0, 80(a0)
80002754: 63 62 f7 14  	bltu	a4, a5, 0x80002898 <mcall_trap+0x170>
80002758: 17 66 00 00  	auipc	a2, 6
8000275c: 13 06 c6 3e  	addi	a2, a2, 1004
80002760: 93 96 27 00  	slli	a3, a5, 2
80002764: b3 86 c6 00  	add	a3, a3, a2
80002768: 03 a7 06 00  	lw	a4, 0(a3)
8000276c: 33 07 c7 00  	add	a4, a4, a2
80002770: 67 00 07 00  	jr	a4
80002774: 93 05 40 00  	li	a1, 4
80002778: ef f0 1f b5  	jal	0x800022c8 <send_ipi_many>
8000277c: 93 07 00 00  	li	a5, 0
80002780: 83 30 81 01  	ld	ra, 24(sp)
80002784: 03 34 01 01  	ld	s0, 16(sp)
80002788: 23 b8 f4 04  	sd	a5, 80(s1)
8000278c: 83 34 81 00  	ld	s1, 8(sp)
80002790: 13 01 01 02  	addi	sp, sp, 32
80002794: 67 80 00 00  	ret
80002798: 37 17 00 00  	lui	a4, 1
8000279c: 33 07 e4 00  	add	a4, s0, a4
800027a0: b7 f6 ff ff  	lui	a3, 1048575
800027a4: 33 77 d7 00  	and	a4, a4, a3
800027a8: 03 37 07 fd  	ld	a4, -48(a4)
800027ac: 23 30 a7 00  	sd	a0, 0(a4)
800027b0: 13 07 00 02  	li	a4, 32
800027b4: 73 37 47 34  	csrrc	a4, mip, a4
800027b8: 13 07 00 08  	li	a4, 128
800027bc: 73 27 47 30  	csrrs	a4, mie, a4
800027c0: 83 30 81 01  	ld	ra, 24(sp)
800027c4: 03 34 01 01  	ld	s0, 16(sp)
800027c8: 23 b8 f4 04  	sd	a5, 80(s1)
800027cc: 83 34 81 00  	ld	s1, 8(sp)
800027d0: 13 01 01 02  	addi	sp, sp, 32
800027d4: 67 80 00 00  	ret
800027d8: 13 75 f5 0f  	andi	a0, a0, 255
800027dc: ef f0 1f c9  	jal	0x8000246c <mcall_console_putchar>
800027e0: 83 30 81 01  	ld	ra, 24(sp)
800027e4: 03 34 01 01  	ld	s0, 16(sp)
800027e8: 93 07 05 00  	mv	a5, a0
800027ec: 23 b8 f4 04  	sd	a5, 80(s1)
800027f0: 83 34 81 00  	ld	s1, 8(sp)
800027f4: 13 01 01 02  	addi	sp, sp, 32
800027f8: 67 80 00 00  	ret
800027fc: 97 b7 00 00  	auipc	a5, 11
80002800: 83 b7 c7 86  	ld	a5, -1940(a5)
80002804: 63 9e 07 06  	bnez	a5, 0x80002880 <mcall_trap+0x158>
80002808: 97 b7 00 00  	auipc	a5, 11
8000280c: 83 b7 87 86  	ld	a5, -1944(a5)
80002810: 63 92 07 06  	bnez	a5, 0x80002874 <mcall_trap+0x14c>
80002814: 97 b7 00 00  	auipc	a5, 11
80002818: 83 b7 47 86  	ld	a5, -1948(a5)
8000281c: 63 98 07 06  	bnez	a5, 0x8000288c <mcall_trap+0x164>
80002820: 17 b7 00 00  	auipc	a4, 11
80002824: 03 37 87 83  	ld	a4, -1992(a4)
80002828: 93 07 f0 ff  	li	a5, -1
8000282c: e3 0a 07 f4  	beqz	a4, 0x80002780 <mcall_trap+0x58>
80002830: ef 00 40 64  	jal	0x80002e74 <htif_console_getchar>
80002834: 93 07 05 00  	mv	a5, a0
80002838: 6f f0 9f f4  	j	0x80002780 <mcall_trap+0x58>
8000283c: 73 75 41 34  	csrrci	a0, mip, 2
80002840: 83 30 81 01  	ld	ra, 24(sp)
80002844: 03 34 01 01  	ld	s0, 16(sp)
80002848: 93 77 25 00  	andi	a5, a0, 2
8000284c: 23 b8 f4 04  	sd	a5, 80(s1)
80002850: 83 34 81 00  	ld	s1, 8(sp)
80002854: 13 01 01 02  	addi	sp, sp, 32
80002858: 67 80 00 00  	ret
8000285c: 93 05 10 00  	li	a1, 1
80002860: 6f f0 9f f1  	j	0x80002778 <mcall_trap+0x50>
80002864: 93 05 20 00  	li	a1, 2
80002868: 6f f0 1f f1  	j	0x80002778 <mcall_trap+0x50>
8000286c: 13 05 00 00  	li	a0, 0
80002870: ef f0 5f d9  	jal	0x80002604 <poweroff>
80002874: ef 00 d0 50  	jal	0x80003580 <uart16550_getchar>
80002878: 93 07 05 00  	mv	a5, a0
8000287c: 6f f0 5f f0  	j	0x80002780 <mcall_trap+0x58>
80002880: ef 00 50 1b  	jal	0x80003234 <uart_getchar>
80002884: 93 07 05 00  	mv	a5, a0
80002888: 6f f0 9f ef  	j	0x80002780 <mcall_trap+0x58>
8000288c: ef 00 10 6a  	jal	0x8000372c <uart_litex_getchar>
80002890: 93 07 05 00  	mv	a5, a0
80002894: 6f f0 df ee  	j	0x80002780 <mcall_trap+0x58>
80002898: 93 07 a0 fd  	li	a5, -38
8000289c: 6f f0 5f ee  	j	0x80002780 <mcall_trap+0x58>

00000000800028a0 <hart_init>:
800028a0: 13 01 01 ff  	addi	sp, sp, -16
800028a4: f3 27 10 30  	csrr	a5, misa
800028a8: 23 34 11 00  	sd	ra, 8(sp)
800028ac: 93 f7 07 02  	andi	a5, a5, 32
800028b0: 37 67 00 00  	lui	a4, 6
800028b4: 63 94 07 00  	bnez	a5, 0x800028bc <hart_init+0x1c>
800028b8: 13 07 00 00  	li	a4, 0
800028bc: f3 27 10 30  	csrr	a5, misa
800028c0: 93 96 a7 02  	slli	a3, a5, 42
800028c4: 63 d4 06 00  	bgez	a3, 0x800028cc <hart_init+0x2c>
800028c8: 13 67 07 60  	ori	a4, a4, 1536
800028cc: 73 10 07 30  	csrw	mstatus, a4
800028d0: f3 27 10 30  	csrr	a5, misa
800028d4: 13 97 d7 02  	slli	a4, a5, 45
800028d8: 63 56 07 00  	bgez	a4, 0x800028e4 <hart_init+0x44>
800028dc: 93 07 f0 ff  	li	a5, -1
800028e0: 73 90 67 10  	csrw	scounteren, a5
800028e4: f3 27 10 30  	csrr	a5, misa
800028e8: 13 97 b7 02  	slli	a4, a5, 43
800028ec: 63 56 07 00  	bgez	a4, 0x800028f8 <hart_init+0x58>
800028f0: 93 07 f0 ff  	li	a5, -1
800028f4: 73 90 67 30  	csrw	mcounteren, a5
800028f8: 73 50 44 30  	csrwi	mie, 8
800028fc: f3 27 10 30  	csrr	a5, misa
80002900: 13 97 d7 02  	slli	a4, a5, 45
80002904: 63 54 07 00  	bgez	a4, 0x8000290c <hart_init+0x6c>
80002908: 73 50 00 18  	csrwi	satp, 0
8000290c: f3 27 10 30  	csrr	a5, misa
80002910: 93 f7 07 02  	andi	a5, a5, 32
80002914: 63 8c 07 02  	beqz	a5, 0x8000294c <hart_init+0xac>
80002918: 73 27 00 30  	csrr	a4, mstatus
8000291c: b7 67 00 00  	lui	a5, 6
80002920: 33 77 f7 00  	and	a4, a4, a5
80002924: 93 06 00 10  	li	a3, 256
80002928: 93 07 00 00  	li	a5, 0
8000292c: 63 00 07 08  	beqz	a4, 0x800029ac <hart_init+0x10c>
80002930: 13 05 00 00  	li	a0, 0
80002934: 17 17 00 00  	auipc	a4, 1
80002938: 33 07 f7 00  	add	a4, a4, a5
8000293c: e7 02 c7 0f  	jalr	t0, 252(a4)
80002940: 93 87 87 00  	addi	a5, a5, 8
80002944: e3 96 d7 fe  	bne	a5, a3, 0x80002930 <hart_init+0x90>
80002948: 73 50 30 00  	csrwi	fcsr, 0
8000294c: f3 27 10 30  	csrr	a5, misa
80002950: 13 97 d7 02  	slli	a4, a5, 45
80002954: 63 56 07 02  	bgez	a4, 0x80002980 <hart_init+0xe0>
80002958: 93 06 20 22  	li	a3, 546
8000295c: 73 90 36 30  	csrw	mideleg, a3
80002960: b7 b7 00 00  	lui	a5, 11
80002964: 93 87 97 10  	addi	a5, a5, 265
80002968: 73 90 27 30  	csrw	medeleg, a5
8000296c: 73 27 30 30  	csrr	a4, mideleg
80002970: 13 77 27 22  	andi	a4, a4, 546
80002974: 63 1e d7 06  	bne	a4, a3, 0x800029f0 <hart_init+0x150>
80002978: 73 27 20 30  	csrr	a4, medeleg
8000297c: 63 1e f7 04  	bne	a4, a5, 0x800029d8 <hart_init+0x138>
80002980: 93 07 f0 01  	li	a5, 31
80002984: 13 07 f0 ff  	li	a4, -1
80002988: 97 02 00 00  	auipc	t0, 0
8000298c: 93 82 42 01  	addi	t0, t0, 20
80002990: f3 92 52 30  	csrrw	t0, mtvec, t0
80002994: 73 10 07 3b  	csrw	pmpaddr0, a4
80002998: 73 90 07 3a  	csrw	pmpcfg0, a5
8000299c: 73 90 52 30  	csrw	mtvec, t0
800029a0: 83 30 81 00  	ld	ra, 8(sp)
800029a4: 13 01 01 01  	addi	sp, sp, 16
800029a8: 67 80 00 00  	ret
800029ac: 17 65 00 00  	auipc	a0, 6
800029b0: 13 05 c5 4f  	addi	a0, a0, 1276
800029b4: 97 76 00 00  	auipc	a3, 7
800029b8: 93 86 c6 8b  	addi	a3, a3, -1860
800029bc: 13 06 e0 05  	li	a2, 94
800029c0: 97 75 00 00  	auipc	a1, 7
800029c4: 93 85 05 8d  	addi	a1, a1, -1840
800029c8: ef f0 5f ba  	jal	0x8000256c <printm>
800029cc: 37 05 01 00  	lui	a0, 16
800029d0: 13 05 f5 ff  	addi	a0, a0, -1
800029d4: ef f0 1f c3  	jal	0x80002604 <poweroff>
800029d8: 17 65 00 00  	auipc	a0, 6
800029dc: 13 05 05 4d  	addi	a0, a0, 1232
800029e0: 97 76 00 00  	auipc	a3, 7
800029e4: 93 86 86 8f  	addi	a3, a3, -1800
800029e8: 13 06 60 05  	li	a2, 86
800029ec: 6f f0 5f fd  	j	0x800029c0 <hart_init+0x120>
800029f0: 17 65 00 00  	auipc	a0, 6
800029f4: 13 05 85 4b  	addi	a0, a0, 1208
800029f8: 97 76 00 00  	auipc	a3, 7
800029fc: 93 86 06 8b  	addi	a3, a3, -1872
80002a00: 13 06 50 05  	li	a2, 85
80002a04: 6f f0 df fb  	j	0x800029c0 <hart_init+0x120>

0000000080002a08 <hart_plic_init>:
80002a08: 13 01 01 ff  	addi	sp, sp, -16
80002a0c: 23 34 81 00  	sd	s0, 8(sp)
80002a10: b7 16 00 00  	lui	a3, 1
80002a14: 13 04 01 01  	addi	s0, sp, 16
80002a18: b3 06 d4 00  	add	a3, s0, a3
80002a1c: b7 f7 ff ff  	lui	a5, 1048575
80002a20: b3 f6 f6 00  	and	a3, a3, a5
80002a24: 03 b7 06 fc  	ld	a4, -64(a3)
80002a28: 83 b7 06 fd  	ld	a5, -48(a3)
80002a2c: 23 20 07 00  	sw	zero, 0(a4)
80002a30: 13 07 f0 ff  	li	a4, -1
80002a34: 23 b0 e7 00  	sd	a4, 0(a5)
80002a38: 73 50 40 34  	csrwi	mip, 0
80002a3c: 17 a6 00 00  	auipc	a2, 10
80002a40: 03 36 c6 5e  	ld	a2, 1516(a2)
80002a44: 63 0e 06 04  	beqz	a2, 0x80002aa0 <hart_plic_init+0x98>
80002a48: 13 06 f6 01  	addi	a2, a2, 31
80002a4c: 13 56 56 00  	srli	a2, a2, 5
80002a50: 63 04 06 02  	beqz	a2, 0x80002a78 <hart_plic_init+0x70>
80002a54: 13 16 26 00  	slli	a2, a2, 2
80002a58: 93 07 00 00  	li	a5, 0
80002a5c: 13 05 f0 ff  	li	a0, -1
80002a60: 03 b7 06 ff  	ld	a4, -16(a3)
80002a64: b3 05 f7 00  	add	a1, a4, a5
80002a68: 93 87 47 00  	addi	a5, a5, 4
80002a6c: 63 04 07 00  	beqz	a4, 0x80002a74 <hart_plic_init+0x6c>
80002a70: 23 a0 a5 00  	sw	a0, 0(a1)
80002a74: e3 16 f6 fe  	bne	a2, a5, 0x80002a60 <hart_plic_init+0x58>
80002a78: b7 17 00 00  	lui	a5, 1
80002a7c: 37 f7 ff ff  	lui	a4, 1048575
80002a80: b3 07 f4 00  	add	a5, s0, a5
80002a84: b3 f7 e7 00  	and	a5, a5, a4
80002a88: 03 b7 87 fd  	ld	a4, -40(a5)
80002a8c: 83 b7 87 fe  	ld	a5, -24(a5)
80002a90: 93 06 10 00  	li	a3, 1
80002a94: 23 20 d7 00  	sw	a3, 0(a4)
80002a98: 63 84 07 00  	beqz	a5, 0x80002aa0 <hart_plic_init+0x98>
80002a9c: 23 a0 07 00  	sw	zero, 0(a5)
80002aa0: 03 34 81 00  	ld	s0, 8(sp)
80002aa4: 13 01 01 01  	addi	sp, sp, 16
80002aa8: 67 80 00 00  	ret

0000000080002aac <hls_init>:
80002aac: 13 01 01 ff  	addi	sp, sp, -16
80002ab0: 23 34 81 00  	sd	s0, 8(sp)
80002ab4: f3 27 40 f1  	csrr	a5, mhartid
80002ab8: 13 04 01 01  	addi	s0, sp, 16
80002abc: b3 07 f5 40  	sub	a5, a0, a5
80002ac0: 37 15 00 00  	lui	a0, 1
80002ac4: 33 05 a4 00  	add	a0, s0, a0
80002ac8: 93 97 c7 00  	slli	a5, a5, 12
80002acc: 37 f7 ff ff  	lui	a4, 1048575
80002ad0: 33 75 e5 00  	and	a0, a0, a4
80002ad4: 93 87 07 fc  	addi	a5, a5, -64
80002ad8: 33 05 f5 00  	add	a0, a0, a5
80002adc: 23 30 05 00  	sd	zero, 0(a0)
80002ae0: 23 34 05 00  	sd	zero, 8(a0)
80002ae4: 23 38 05 00  	sd	zero, 16(a0)
80002ae8: 23 3c 05 00  	sd	zero, 24(a0)
80002aec: 23 30 05 02  	sd	zero, 32(a0)
80002af0: 23 34 05 02  	sd	zero, 40(a0)
80002af4: 23 38 05 02  	sd	zero, 48(a0)
80002af8: 03 34 81 00  	ld	s0, 8(sp)
80002afc: 13 01 01 01  	addi	sp, sp, 16
80002b00: 67 80 00 00  	ret

0000000080002b04 <init_first_hart>:
80002b04: 13 01 01 fe  	addi	sp, sp, -32
80002b08: 23 3c 11 00  	sd	ra, 24(sp)
80002b0c: 23 38 81 00  	sd	s0, 16(sp)
80002b10: 23 34 91 00  	sd	s1, 8(sp)
80002b14: 13 04 01 02  	addi	s0, sp, 32
80002b18: 13 85 05 00  	mv	a0, a1
80002b1c: 93 84 05 00  	mv	s1, a1
80002b20: ef 00 80 73  	jal	0x80003258 <query_uart>
80002b24: 13 85 04 00  	mv	a0, s1
80002b28: ef 00 50 29  	jal	0x800035bc <query_uart16550>
80002b2c: 13 85 04 00  	mv	a0, s1
80002b30: ef 00 d0 42  	jal	0x8000375c <query_uart_litex>
80002b34: 13 85 04 00  	mv	a0, s1
80002b38: ef 00 80 58  	jal	0x800030c0 <query_htif>
80002b3c: 17 65 00 00  	auipc	a0, 6
80002b40: 13 05 c5 7b  	addi	a0, a0, 1980
80002b44: ef f0 9f a2  	jal	0x8000256c <printm>
80002b48: ef f0 9f d5  	jal	0x800028a0 <hart_init>
80002b4c: 13 05 00 00  	li	a0, 0
80002b50: ef f0 df f5  	jal	0x80002aac <hls_init>
80002b54: 13 85 04 00  	mv	a0, s1
80002b58: ef 00 d0 58  	jal	0x800038e4 <query_finisher>
80002b5c: 13 85 04 00  	mv	a0, s1
80002b60: ef f0 4f bf  	jal	0x80001f54 <query_mem>
80002b64: 13 85 04 00  	mv	a0, s1
80002b68: ef f0 4f c7  	jal	0x80001fdc <query_harts>
80002b6c: 13 85 04 00  	mv	a0, s1
80002b70: ef f0 0f d1  	jal	0x80002080 <query_clint>
80002b74: 13 85 04 00  	mv	a0, s1
80002b78: ef f0 cf d8  	jal	0x80002104 <query_plic>
80002b7c: 13 85 04 00  	mv	a0, s1
80002b80: ef f0 4f e8  	jal	0x80002204 <query_chosen>
80002b84: 97 a7 00 00  	auipc	a5, 10
80002b88: 83 b7 47 49  	ld	a5, 1172(a5)
80002b8c: 93 c7 f7 ff  	not	a5, a5
80002b90: 17 a7 00 00  	auipc	a4, 10
80002b94: 03 37 07 49  	ld	a4, 1168(a4)
80002b98: b3 f7 e7 00  	and	a5, a5, a4
80002b9c: 93 f7 17 00  	andi	a5, a5, 1
80002ba0: 63 86 07 02  	beqz	a5, 0x80002bcc <init_first_hart+0xc8>
80002ba4: b7 17 00 00  	lui	a5, 1
80002ba8: 37 f7 ff ff  	lui	a4, 1048575
80002bac: b3 07 f4 00  	add	a5, s0, a5
80002bb0: b3 f7 e7 00  	and	a5, a5, a4
80002bb4: 73 27 40 f1  	csrr	a4, mhartid
80002bb8: 13 17 c7 00  	slli	a4, a4, 12
80002bbc: b3 87 e7 40  	sub	a5, a5, a4
80002bc0: 83 b7 07 fc  	ld	a5, -64(a5)
80002bc4: 13 07 10 00  	li	a4, 1
80002bc8: 23 a0 e7 00  	sw	a4, 0(a5)
80002bcc: 97 a7 00 00  	auipc	a5, 10
80002bd0: 83 b7 c7 45  	ld	a5, 1116(a5)
80002bd4: 63 86 07 02  	beqz	a5, 0x80002c00 <init_first_hart+0xfc>
80002bd8: 17 a7 00 00  	auipc	a4, 10
80002bdc: 03 37 87 45  	ld	a4, 1112(a4)
80002be0: 93 97 27 00  	slli	a5, a5, 2
80002be4: 93 06 47 00  	addi	a3, a4, 4
80002be8: b3 07 f7 00  	add	a5, a4, a5
80002bec: 13 07 10 00  	li	a4, 1
80002bf0: 13 86 06 00  	mv	a2, a3
80002bf4: 23 a0 e6 00  	sw	a4, 0(a3)
80002bf8: 93 86 46 00  	addi	a3, a3, 4
80002bfc: e3 1a f6 fe  	bne	a2, a5, 0x80002bf0 <init_first_hart+0xec>
80002c00: ef f0 9f e0  	jal	0x80002a08 <hart_plic_init>
80002c04: 17 a7 00 00  	auipc	a4, 10
80002c08: 13 07 47 43  	addi	a4, a4, 1076
80002c0c: 83 37 07 00  	ld	a5, 0(a4)
80002c10: 03 34 01 01  	ld	s0, 16(sp)
80002c14: b7 06 e0 ff  	lui	a3, 1048064
80002c18: 83 30 81 01  	ld	ra, 24(sp)
80002c1c: 13 85 04 00  	mv	a0, s1
80002c20: b3 f7 d7 00  	and	a5, a5, a3
80002c24: 83 34 81 00  	ld	s1, 8(sp)
80002c28: 23 30 f7 00  	sd	a5, 0(a4)
80002c2c: 13 01 01 02  	addi	sp, sp, 32
80002c30: 6f d0 cf f9  	j	0x800003cc <boot_loader>

0000000080002c34 <init_other_hart>:
80002c34: 13 01 01 ff  	addi	sp, sp, -16
80002c38: 23 34 11 00  	sd	ra, 8(sp)
80002c3c: 23 30 81 00  	sd	s0, 0(sp)
80002c40: 13 84 05 00  	mv	s0, a1
80002c44: ef f0 df c5  	jal	0x800028a0 <hart_init>
80002c48: ef f0 1f dc  	jal	0x80002a08 <hart_plic_init>
80002c4c: 13 05 04 00  	mv	a0, s0
80002c50: 03 34 01 00  	ld	s0, 0(sp)
80002c54: 83 30 81 00  	ld	ra, 8(sp)
80002c58: 13 01 01 01  	addi	sp, sp, 16
80002c5c: 6f d0 4f e5  	j	0x800002b0 <boot_other_hart>

0000000080002c60 <setup_pmp>:
80002c60: 93 07 f0 01  	li	a5, 31
80002c64: 13 07 f0 ff  	li	a4, -1
80002c68: 97 02 00 00  	auipc	t0, 0
80002c6c: 93 82 42 01  	addi	t0, t0, 20
80002c70: f3 92 52 30  	csrrw	t0, mtvec, t0
80002c74: 73 10 07 3b  	csrw	pmpaddr0, a4
80002c78: 73 90 07 3a  	csrw	pmpcfg0, a5
80002c7c: 73 90 52 30  	csrw	mtvec, t0
80002c80: 67 80 00 00  	ret

0000000080002c84 <enter_supervisor_mode>:
80002c84: 13 01 01 ff  	addi	sp, sp, -16
80002c88: 23 34 81 00  	sd	s0, 8(sp)
80002c8c: 13 04 01 01  	addi	s0, sp, 16
80002c90: 93 06 05 00  	mv	a3, a0
80002c94: 13 85 05 00  	mv	a0, a1
80002c98: 93 05 06 00  	mv	a1, a2
80002c9c: 73 27 00 30  	csrr	a4, mstatus
80002ca0: 37 e6 ff ff  	lui	a2, 1048574
80002ca4: b7 17 00 00  	lui	a5, 1
80002ca8: 13 06 f6 77  	addi	a2, a2, 1919
80002cac: 33 77 c7 00  	and	a4, a4, a2
80002cb0: 13 86 07 80  	addi	a2, a5, -2048
80002cb4: 33 67 c7 00  	or	a4, a4, a2
80002cb8: 73 10 07 30  	csrw	mstatus, a4
80002cbc: 37 f7 ff ff  	lui	a4, 1048575
80002cc0: b3 07 f4 00  	add	a5, s0, a5
80002cc4: b3 f7 e7 00  	and	a5, a5, a4
80002cc8: 93 87 07 ec  	addi	a5, a5, -320
80002ccc: 73 90 07 34  	csrw	mscratch, a5
80002cd0: 73 90 16 34  	csrw	mepc, a3
80002cd4: 73 00 20 30  	mret	

0000000080002cd8 <enter_machine_mode>:
80002cd8: 13 01 01 ff  	addi	sp, sp, -16
80002cdc: 23 30 81 00  	sd	s0, 0(sp)
80002ce0: 23 34 11 00  	sd	ra, 8(sp)
80002ce4: 13 04 01 01  	addi	s0, sp, 16
80002ce8: 13 07 05 00  	mv	a4, a0
80002cec: 13 85 05 00  	mv	a0, a1
80002cf0: 93 05 06 00  	mv	a1, a2
80002cf4: f3 27 00 30  	csrr	a5, mstatus
80002cf8: 93 f7 f7 f7  	andi	a5, a5, -129
80002cfc: 73 90 07 30  	csrw	mstatus, a5
80002d00: b7 17 00 00  	lui	a5, 1
80002d04: b3 07 f4 00  	add	a5, s0, a5
80002d08: b7 f6 ff ff  	lui	a3, 1048575
80002d0c: b3 f7 d7 00  	and	a5, a5, a3
80002d10: 93 87 07 ec  	addi	a5, a5, -320
80002d14: 73 90 07 34  	csrw	mscratch, a5
80002d18: e7 00 07 00  	jalr	a4

0000000080002d1c <htif_done>:
80002d1c: 83 a7 05 00  	lw	a5, 0(a1)
80002d20: 63 88 07 00  	beqz	a5, 0x80002d30 <htif_done+0x14>
80002d24: 93 07 10 00  	li	a5, 1
80002d28: 17 a7 00 00  	auipc	a4, 10
80002d2c: 23 38 f7 32  	sd	a5, 816(a4)
80002d30: 67 80 00 00  	ret

0000000080002d34 <htif_open>:
80002d34: 23 80 05 00  	sb	zero, 0(a1)
80002d38: a3 80 05 00  	sb	zero, 1(a1)
80002d3c: 23 81 05 00  	sb	zero, 2(a1)
80002d40: a3 81 05 00  	sb	zero, 3(a1)
80002d44: 67 80 00 00  	ret

0000000080002d48 <__check_fromhost>:
80002d48: 97 77 00 00  	auipc	a5, 7
80002d4c: 83 b7 87 2b  	ld	a5, 696(a5)
80002d50: 63 8c 07 04  	beqz	a5, 0x80002da8 <__check_fromhost+0x60>
80002d54: 13 01 01 ff  	addi	sp, sp, -16
80002d58: 17 77 00 00  	auipc	a4, 7
80002d5c: 23 34 07 2a  	sd	zero, 680(a4)
80002d60: 23 34 11 00  	sd	ra, 8(sp)
80002d64: 93 d6 87 03  	srli	a3, a5, 56
80002d68: 13 07 10 00  	li	a4, 1
80002d6c: 63 90 e6 04  	bne	a3, a4, 0x80002dac <__check_fromhost+0x64>
80002d70: 13 97 87 00  	slli	a4, a5, 8
80002d74: 13 57 87 03  	srli	a4, a4, 56
80002d78: 63 0a 07 00  	beqz	a4, 0x80002d8c <__check_fromhost+0x44>
80002d7c: 63 1e d7 04  	bne	a4, a3, 0x80002dd8 <__check_fromhost+0x90>
80002d80: 83 30 81 00  	ld	ra, 8(sp)
80002d84: 13 01 01 01  	addi	sp, sp, 16
80002d88: 67 80 00 00  	ret
80002d8c: 83 30 81 00  	ld	ra, 8(sp)
80002d90: 93 f7 f7 0f  	andi	a5, a5, 255
80002d94: 9b 87 17 00  	addiw	a5, a5, 1
80002d98: 17 a7 00 00  	auipc	a4, 10
80002d9c: 23 24 f7 2c  	sw	a5, 712(a4)
80002da0: 13 01 01 01  	addi	sp, sp, 16
80002da4: 67 80 00 00  	ret
80002da8: 67 80 00 00  	ret
80002dac: 17 65 00 00  	auipc	a0, 6
80002db0: 13 05 c5 0f  	addi	a0, a0, 252
80002db4: 97 66 00 00  	auipc	a3, 6
80002db8: 93 86 46 55  	addi	a3, a3, 1364
80002dbc: 13 06 f0 01  	li	a2, 31
80002dc0: 97 65 00 00  	auipc	a1, 6
80002dc4: 93 85 05 56  	addi	a1, a1, 1376
80002dc8: ef f0 4f fa  	jal	0x8000256c <printm>
80002dcc: 37 05 01 00  	lui	a0, 16
80002dd0: 13 05 f5 ff  	addi	a0, a0, -1
80002dd4: ef f0 1f 83  	jal	0x80002604 <poweroff>
80002dd8: 17 65 00 00  	auipc	a0, 6
80002ddc: 13 05 05 0d  	addi	a0, a0, 208
80002de0: 97 66 00 00  	auipc	a3, 6
80002de4: 93 86 86 0a  	addi	a3, a3, 168
80002de8: 13 06 70 02  	li	a2, 39
80002dec: 97 65 00 00  	auipc	a1, 6
80002df0: 93 85 45 53  	addi	a1, a1, 1332
80002df4: ef f0 8f f7  	jal	0x8000256c <printm>
80002df8: 37 05 01 00  	lui	a0, 16
80002dfc: 13 05 f5 ff  	addi	a0, a0, -1
80002e00: ef f0 5f 80  	jal	0x80002604 <poweroff>

0000000080002e04 <htif_prop>:
80002e04: 13 01 01 fe  	addi	sp, sp, -32
80002e08: 23 38 81 00  	sd	s0, 16(sp)
80002e0c: 13 04 05 00  	mv	s0, a0
80002e10: 03 35 85 00  	ld	a0, 8(a0)
80002e14: 23 34 91 00  	sd	s1, 8(sp)
80002e18: 93 84 05 00  	mv	s1, a1
80002e1c: 97 65 00 00  	auipc	a1, 6
80002e20: 93 85 c5 36  	addi	a1, a1, 876
80002e24: 23 3c 11 00  	sd	ra, 24(sp)
80002e28: ef 50 c0 7d  	jal	0x80008604 <strcmp>
80002e2c: 63 0c 05 00  	beqz	a0, 0x80002e44 <htif_prop+0x40>
80002e30: 83 30 81 01  	ld	ra, 24(sp)
80002e34: 03 34 01 01  	ld	s0, 16(sp)
80002e38: 83 34 81 00  	ld	s1, 8(sp)
80002e3c: 13 01 01 02  	addi	sp, sp, 32
80002e40: 67 80 00 00  	ret
80002e44: 97 65 00 00  	auipc	a1, 6
80002e48: 93 85 45 4f  	addi	a1, a1, 1268
80002e4c: 13 05 04 00  	mv	a0, s0
80002e50: ef e0 1f d0  	jal	0x80001b50 <fdt_string_list_index>
80002e54: e3 4e 05 fc  	bltz	a0, 0x80002e30 <htif_prop+0x2c>
80002e58: 83 30 81 01  	ld	ra, 24(sp)
80002e5c: 03 34 01 01  	ld	s0, 16(sp)
80002e60: 93 07 10 00  	li	a5, 1
80002e64: 23 a0 f4 00  	sw	a5, 0(s1)
80002e68: 83 34 81 00  	ld	s1, 8(sp)
80002e6c: 13 01 01 02  	addi	sp, sp, 32
80002e70: 67 80 00 00  	ret

0000000080002e74 <htif_console_getchar>:
80002e74: 13 01 01 fe  	addi	sp, sp, -32
80002e78: 23 38 81 00  	sd	s0, 16(sp)
80002e7c: 23 3c 11 00  	sd	ra, 24(sp)
80002e80: 23 34 91 00  	sd	s1, 8(sp)
80002e84: 17 a7 00 00  	auipc	a4, 10
80002e88: 13 07 c7 18  	addi	a4, a4, 396
80002e8c: 13 04 f0 ff  	li	s0, -1
80002e90: 83 27 07 00  	lw	a5, 0(a4)
80002e94: 9b 87 07 00  	sext.w	a5, a5
80002e98: e3 9c 07 fe  	bnez	a5, 0x80002e90 <htif_console_getchar+0x1c>
80002e9c: 83 27 07 00  	lw	a5, 0(a4)
80002ea0: 23 20 87 00  	sw	s0, 0(a4)
80002ea4: 9b 87 07 00  	sext.w	a5, a5
80002ea8: 0f 00 f0 0f  	fence
80002eac: e3 92 07 fe  	bnez	a5, 0x80002e90 <htif_console_getchar+0x1c>
80002eb0: ef f0 9f e9  	jal	0x80002d48 <__check_fromhost>
80002eb4: 97 a4 00 00  	auipc	s1, 10
80002eb8: 83 a4 c4 1a  	lw	s1, 428(s1)
80002ebc: 63 ca 04 02  	bltz	s1, 0x80002ef0 <htif_console_getchar+0x7c>
80002ec0: 97 a7 00 00  	auipc	a5, 10
80002ec4: 23 a0 87 1a  	sw	s0, 416(a5)
80002ec8: 17 74 00 00  	auipc	s0, 7
80002ecc: 13 04 84 13  	addi	s0, s0, 312
80002ed0: 83 37 84 00  	ld	a5, 8(s0)
80002ed4: 63 88 07 00  	beqz	a5, 0x80002ee4 <htif_console_getchar+0x70>
80002ed8: ef f0 1f e7  	jal	0x80002d48 <__check_fromhost>
80002edc: 83 37 84 00  	ld	a5, 8(s0)
80002ee0: e3 9c 07 fe  	bnez	a5, 0x80002ed8 <htif_console_getchar+0x64>
80002ee4: 93 07 10 00  	li	a5, 1
80002ee8: 93 97 87 03  	slli	a5, a5, 56
80002eec: 23 34 f4 00  	sd	a5, 8(s0)
80002ef0: 0f 00 f0 0f  	fence
80002ef4: 83 30 81 01  	ld	ra, 24(sp)
80002ef8: 03 34 01 01  	ld	s0, 16(sp)
80002efc: 97 a7 00 00  	auipc	a5, 10
80002f00: 23 aa 07 10  	sw	zero, 276(a5)
80002f04: 1b 85 f4 ff  	addiw	a0, s1, -1
80002f08: 83 34 81 00  	ld	s1, 8(sp)
80002f0c: 13 01 01 02  	addi	sp, sp, 32
80002f10: 67 80 00 00  	ret

0000000080002f14 <htif_syscall>:
80002f14: 13 01 01 fe  	addi	sp, sp, -32
80002f18: 23 34 91 00  	sd	s1, 8(sp)
80002f1c: 23 3c 11 00  	sd	ra, 24(sp)
80002f20: 23 38 81 00  	sd	s0, 16(sp)
80002f24: 93 04 05 00  	mv	s1, a0
80002f28: 97 a7 00 00  	auipc	a5, 10
80002f2c: 93 87 87 0e  	addi	a5, a5, 232
80002f30: 93 06 f0 ff  	li	a3, -1
80002f34: 03 a7 07 00  	lw	a4, 0(a5)
80002f38: 1b 07 07 00  	sext.w	a4, a4
80002f3c: e3 1c 07 fe  	bnez	a4, 0x80002f34 <htif_syscall+0x20>
80002f40: 03 a7 07 00  	lw	a4, 0(a5)
80002f44: 23 a0 d7 00  	sw	a3, 0(a5)
80002f48: 1b 07 07 00  	sext.w	a4, a4
80002f4c: 0f 00 f0 0f  	fence
80002f50: e3 12 07 fe  	bnez	a4, 0x80002f34 <htif_syscall+0x20>
80002f54: 17 74 00 00  	auipc	s0, 7
80002f58: 13 04 c4 0a  	addi	s0, s0, 172
80002f5c: 83 37 84 00  	ld	a5, 8(s0)
80002f60: 63 88 07 00  	beqz	a5, 0x80002f70 <htif_syscall+0x5c>
80002f64: ef f0 5f de  	jal	0x80002d48 <__check_fromhost>
80002f68: 83 37 84 00  	ld	a5, 8(s0)
80002f6c: e3 9c 07 fe  	bnez	a5, 0x80002f64 <htif_syscall+0x50>
80002f70: 23 34 94 00  	sd	s1, 8(s0)
80002f74: 83 37 04 00  	ld	a5, 0(s0)
80002f78: e3 8e 07 fe  	beqz	a5, 0x80002f74 <htif_syscall+0x60>
80002f7c: 13 97 87 00  	slli	a4, a5, 8
80002f80: b3 e7 e7 00  	or	a5, a5, a4
80002f84: 93 d7 87 03  	srli	a5, a5, 56
80002f88: 63 86 07 00  	beqz	a5, 0x80002f94 <htif_syscall+0x80>
80002f8c: ef f0 df db  	jal	0x80002d48 <__check_fromhost>
80002f90: 6f f0 5f fe  	j	0x80002f74 <htif_syscall+0x60>
80002f94: 97 77 00 00  	auipc	a5, 7
80002f98: 23 b6 07 06  	sd	zero, 108(a5)
80002f9c: 0f 00 f0 0f  	fence
80002fa0: 83 30 81 01  	ld	ra, 24(sp)
80002fa4: 03 34 01 01  	ld	s0, 16(sp)
80002fa8: 97 a7 00 00  	auipc	a5, 10
80002fac: 23 a4 07 06  	sw	zero, 104(a5)
80002fb0: 83 34 81 00  	ld	s1, 8(sp)
80002fb4: 13 01 01 02  	addi	sp, sp, 32
80002fb8: 67 80 00 00  	ret

0000000080002fbc <htif_console_putchar>:
80002fbc: 13 01 01 fe  	addi	sp, sp, -32
80002fc0: 23 34 91 00  	sd	s1, 8(sp)
80002fc4: 23 3c 11 00  	sd	ra, 24(sp)
80002fc8: 23 38 81 00  	sd	s0, 16(sp)
80002fcc: 93 04 05 00  	mv	s1, a0
80002fd0: 17 a7 00 00  	auipc	a4, 10
80002fd4: 13 07 07 04  	addi	a4, a4, 64
80002fd8: 93 06 f0 ff  	li	a3, -1
80002fdc: 83 27 07 00  	lw	a5, 0(a4)
80002fe0: 9b 87 07 00  	sext.w	a5, a5
80002fe4: e3 9c 07 fe  	bnez	a5, 0x80002fdc <htif_console_putchar+0x20>
80002fe8: 83 27 07 00  	lw	a5, 0(a4)
80002fec: 23 20 d7 00  	sw	a3, 0(a4)
80002ff0: 9b 87 07 00  	sext.w	a5, a5
80002ff4: 0f 00 f0 0f  	fence
80002ff8: e3 92 07 fe  	bnez	a5, 0x80002fdc <htif_console_putchar+0x20>
80002ffc: 17 74 00 00  	auipc	s0, 7
80003000: 13 04 44 00  	addi	s0, s0, 4
80003004: 83 37 84 00  	ld	a5, 8(s0)
80003008: 63 88 07 00  	beqz	a5, 0x80003018 <htif_console_putchar+0x5c>
8000300c: ef f0 df d3  	jal	0x80002d48 <__check_fromhost>
80003010: 83 37 84 00  	ld	a5, 8(s0)
80003014: e3 9c 07 fe  	bnez	a5, 0x8000300c <htif_console_putchar+0x50>
80003018: 93 07 10 10  	li	a5, 257
8000301c: 93 97 07 03  	slli	a5, a5, 48
80003020: b3 e4 f4 00  	or	s1, s1, a5
80003024: 23 34 94 00  	sd	s1, 8(s0)
80003028: 0f 00 f0 0f  	fence
8000302c: 83 30 81 01  	ld	ra, 24(sp)
80003030: 03 34 01 01  	ld	s0, 16(sp)
80003034: 97 a7 00 00  	auipc	a5, 10
80003038: 23 ae 07 fc  	sw	zero, -36(a5)
8000303c: 83 34 81 00  	ld	s1, 8(sp)
80003040: 13 01 01 02  	addi	sp, sp, 32
80003044: 67 80 00 00  	ret

0000000080003048 <htif_poweroff>:
80003048: 13 01 01 fd  	addi	sp, sp, -48
8000304c: 23 30 81 02  	sd	s0, 32(sp)
80003050: 23 3c 91 00  	sd	s1, 24(sp)
80003054: 23 38 21 01  	sd	s2, 16(sp)
80003058: 23 34 31 01  	sd	s3, 8(sp)
8000305c: 23 34 11 02  	sd	ra, 40(sp)
80003060: 17 a4 00 00  	auipc	s0, 10
80003064: 13 04 04 fb  	addi	s0, s0, -80
80003068: 97 74 00 00  	auipc	s1, 7
8000306c: 93 84 84 f9  	addi	s1, s1, -104
80003070: 13 09 f0 ff  	li	s2, -1
80003074: 93 09 10 00  	li	s3, 1
80003078: 83 27 04 00  	lw	a5, 0(s0)
8000307c: 9b 87 07 00  	sext.w	a5, a5
80003080: e3 9c 07 fe  	bnez	a5, 0x80003078 <htif_poweroff+0x30>
80003084: 83 27 04 00  	lw	a5, 0(s0)
80003088: 23 20 24 01  	sw	s2, 0(s0)
8000308c: 9b 87 07 00  	sext.w	a5, a5
80003090: 0f 00 f0 0f  	fence
80003094: e3 92 07 fe  	bnez	a5, 0x80003078 <htif_poweroff+0x30>
80003098: 83 b7 84 00  	ld	a5, 8(s1)
8000309c: 63 88 07 00  	beqz	a5, 0x800030ac <htif_poweroff+0x64>
800030a0: ef f0 9f ca  	jal	0x80002d48 <__check_fromhost>
800030a4: 83 b7 84 00  	ld	a5, 8(s1)
800030a8: e3 9c 07 fe  	bnez	a5, 0x800030a0 <htif_poweroff+0x58>
800030ac: 23 b4 34 01  	sd	s3, 8(s1)
800030b0: 0f 00 f0 0f  	fence
800030b4: 97 a7 00 00  	auipc	a5, 10
800030b8: 23 ae 07 f4  	sw	zero, -164(a5)
800030bc: 6f f0 df fb  	j	0x80003078 <htif_poweroff+0x30>

00000000800030c0 <query_htif>:
800030c0: 13 01 01 fc  	addi	sp, sp, -64
800030c4: 97 07 00 00  	auipc	a5, 0
800030c8: 93 87 07 c7  	addi	a5, a5, -912
800030cc: 23 34 f1 00  	sd	a5, 8(sp)
800030d0: 97 07 00 00  	auipc	a5, 0
800030d4: 93 87 47 d3  	addi	a5, a5, -716
800030d8: 23 38 f1 00  	sd	a5, 16(sp)
800030dc: 93 05 81 00  	addi	a1, sp, 8
800030e0: 97 07 00 00  	auipc	a5, 0
800030e4: 93 87 c7 c3  	addi	a5, a5, -964
800030e8: 23 3c 11 02  	sd	ra, 56(sp)
800030ec: 23 30 01 02  	sd	zero, 32(sp)
800030f0: 23 3c f1 00  	sd	a5, 24(sp)
800030f4: 23 34 21 02  	sd	sp, 40(sp)
800030f8: ef e0 0f f5  	jal	0x80001848 <fdt_scan>
800030fc: 83 30 81 03  	ld	ra, 56(sp)
80003100: 13 01 01 04  	addi	sp, sp, 64
80003104: 67 80 00 00  	ret

0000000080003108 <uart_done>:
80003108: 83 a7 05 00  	lw	a5, 0(a1)
8000310c: 63 8e 07 00  	beqz	a5, 0x80003128 <uart_done+0x20>
80003110: 83 b7 85 00  	ld	a5, 8(a1)
80003114: 63 8a 07 00  	beqz	a5, 0x80003128 <uart_done+0x20>
80003118: 17 a7 00 00  	auipc	a4, 10
8000311c: 13 07 07 f5  	addi	a4, a4, -176
80003120: 83 36 07 00  	ld	a3, 0(a4)
80003124: 63 84 06 00  	beqz	a3, 0x8000312c <uart_done+0x24>
80003128: 67 80 00 00  	ret
8000312c: 93 06 10 00  	li	a3, 1
80003130: 23 a4 d7 00  	sw	a3, 8(a5)
80003134: 23 30 f7 00  	sd	a5, 0(a4)
80003138: 23 a6 d7 00  	sw	a3, 12(a5)
8000313c: 67 80 00 00  	ret

0000000080003140 <uart_open>:
80003140: 13 85 05 00  	mv	a0, a1
80003144: 13 06 00 01  	li	a2, 16
80003148: 93 05 00 00  	li	a1, 0
8000314c: 6f 50 00 43  	j	0x8000857c <memset>

0000000080003150 <uart_prop>:
80003150: 13 01 01 fe  	addi	sp, sp, -32
80003154: 23 30 21 01  	sd	s2, 0(sp)
80003158: 03 39 85 00  	ld	s2, 8(a0)
8000315c: 23 38 81 00  	sd	s0, 16(sp)
80003160: 23 34 91 00  	sd	s1, 8(sp)
80003164: 13 04 05 00  	mv	s0, a0
80003168: 93 84 05 00  	mv	s1, a1
8000316c: 13 05 09 00  	mv	a0, s2
80003170: 97 65 00 00  	auipc	a1, 6
80003174: 93 85 85 01  	addi	a1, a1, 24
80003178: 23 3c 11 00  	sd	ra, 24(sp)
8000317c: ef 50 80 48  	jal	0x80008604 <strcmp>
80003180: 63 08 05 02  	beqz	a0, 0x800031b0 <uart_prop+0x60>
80003184: 97 65 00 00  	auipc	a1, 6
80003188: 93 85 c5 d6  	addi	a1, a1, -660
8000318c: 13 05 09 00  	mv	a0, s2
80003190: ef 50 40 47  	jal	0x80008604 <strcmp>
80003194: 63 08 05 04  	beqz	a0, 0x800031e4 <uart_prop+0x94>
80003198: 83 30 81 01  	ld	ra, 24(sp)
8000319c: 03 34 01 01  	ld	s0, 16(sp)
800031a0: 83 34 81 00  	ld	s1, 8(sp)
800031a4: 03 39 01 00  	ld	s2, 0(sp)
800031a8: 13 01 01 02  	addi	sp, sp, 32
800031ac: 67 80 00 00  	ret
800031b0: 97 65 00 00  	auipc	a1, 6
800031b4: 93 85 85 19  	addi	a1, a1, 408
800031b8: 13 05 04 00  	mv	a0, s0
800031bc: ef e0 5f 99  	jal	0x80001b50 <fdt_string_list_index>
800031c0: 63 46 05 04  	bltz	a0, 0x8000320c <uart_prop+0xbc>
800031c4: 83 30 81 01  	ld	ra, 24(sp)
800031c8: 03 34 01 01  	ld	s0, 16(sp)
800031cc: 93 07 10 00  	li	a5, 1
800031d0: 23 a0 f4 00  	sw	a5, 0(s1)
800031d4: 03 39 01 00  	ld	s2, 0(sp)
800031d8: 83 34 81 00  	ld	s1, 8(sp)
800031dc: 13 01 01 02  	addi	sp, sp, 32
800031e0: 67 80 00 00  	ret
800031e4: 83 37 04 00  	ld	a5, 0(s0)
800031e8: 83 35 04 01  	ld	a1, 16(s0)
800031ec: 03 34 01 01  	ld	s0, 16(sp)
800031f0: 83 30 81 01  	ld	ra, 24(sp)
800031f4: 03 39 01 00  	ld	s2, 0(sp)
800031f8: 03 b5 07 00  	ld	a0, 0(a5)
800031fc: 13 86 84 00  	addi	a2, s1, 8
80003200: 83 34 81 00  	ld	s1, 8(sp)
80003204: 13 01 01 02  	addi	sp, sp, 32
80003208: 6f e0 4f fd  	j	0x800019dc <fdt_get_address>
8000320c: 03 39 84 00  	ld	s2, 8(s0)
80003210: 6f f0 5f f7  	j	0x80003184 <uart_prop+0x34>

0000000080003214 <uart_putchar>:
80003214: 17 a7 00 00  	auipc	a4, 10
80003218: 03 37 47 e5  	ld	a4, -428(a4)
8000321c: 83 27 07 00  	lw	a5, 0(a4)
80003220: 93 96 07 02  	slli	a3, a5, 32
80003224: e3 cc 06 fe  	bltz	a3, 0x8000321c <uart_putchar+0x8>
80003228: 1b 05 05 00  	sext.w	a0, a0
8000322c: 23 20 a7 00  	sw	a0, 0(a4)
80003230: 67 80 00 00  	ret

0000000080003234 <uart_getchar>:
80003234: 97 a7 00 00  	auipc	a5, 10
80003238: 83 b7 47 e3  	ld	a5, -460(a5)
8000323c: 83 a7 47 00  	lw	a5, 4(a5)
80003240: 9b 87 07 00  	sext.w	a5, a5
80003244: 1b 85 07 00  	sext.w	a0, a5
80003248: 63 c4 07 00  	bltz	a5, 0x80003250 <uart_getchar+0x1c>
8000324c: 67 80 00 00  	ret
80003250: 13 05 f0 ff  	li	a0, -1
80003254: 67 80 00 00  	ret

0000000080003258 <query_uart>:
80003258: 13 01 01 fb  	addi	sp, sp, -80
8000325c: 97 07 00 00  	auipc	a5, 0
80003260: 93 87 47 ee  	addi	a5, a5, -284
80003264: 23 3c f1 00  	sd	a5, 24(sp)
80003268: 97 07 00 00  	auipc	a5, 0
8000326c: 93 87 87 ee  	addi	a5, a5, -280
80003270: 23 30 f1 02  	sd	a5, 32(sp)
80003274: 97 07 00 00  	auipc	a5, 0
80003278: 93 87 47 e9  	addi	a5, a5, -364
8000327c: 23 34 f1 02  	sd	a5, 40(sp)
80003280: 93 05 81 01  	addi	a1, sp, 24
80003284: 93 07 81 00  	addi	a5, sp, 8
80003288: 23 34 11 04  	sd	ra, 72(sp)
8000328c: 23 38 01 02  	sd	zero, 48(sp)
80003290: 23 3c f1 02  	sd	a5, 56(sp)
80003294: ef e0 4f db  	jal	0x80001848 <fdt_scan>
80003298: 83 30 81 04  	ld	ra, 72(sp)
8000329c: 13 01 01 05  	addi	sp, sp, 80
800032a0: 67 80 00 00  	ret

00000000800032a4 <uart16550_done>:
800032a4: 83 a7 05 00  	lw	a5, 0(a1)
800032a8: 63 8e 07 00  	beqz	a5, 0x800032c4 <uart16550_done+0x20>
800032ac: 83 b6 85 00  	ld	a3, 8(a1)
800032b0: 63 8a 06 00  	beqz	a3, 0x800032c4 <uart16550_done+0x20>
800032b4: 17 a7 00 00  	auipc	a4, 10
800032b8: 13 07 c7 db  	addi	a4, a4, -580
800032bc: 83 37 07 00  	ld	a5, 0(a4)
800032c0: 63 84 07 00  	beqz	a5, 0x800032c8 <uart16550_done+0x24>
800032c4: 67 80 00 00  	ret
800032c8: 03 a6 85 01  	lw	a2, 24(a1)
800032cc: 63 1a 06 0a  	bnez	a2, 0x80003380 <uart16550_done+0xdc>
800032d0: 17 86 00 00  	auipc	a2, 8
800032d4: 03 26 46 de  	lw	a2, -540(a2)
800032d8: 83 a7 c5 01  	lw	a5, 28(a1)
800032dc: 63 8a 07 00  	beqz	a5, 0x800032f0 <uart16550_done+0x4c>
800032e0: 9b 97 47 00  	slliw	a5, a5, 4
800032e4: bb 57 f6 02  	<unknown>
800032e8: 37 05 01 00  	lui	a0, 16
800032ec: 63 e6 a7 00  	bltu	a5, a0, 0x800032f8 <uart16550_done+0x54>
800032f0: b7 67 09 00  	lui	a5, 150
800032f4: bb 57 f6 02  	<unknown>
800032f8: 03 a5 45 01  	lw	a0, 20(a1)
800032fc: 03 e6 05 01  	lwu	a2, 16(a1)
80003300: 93 05 10 00  	li	a1, 1
80003304: bb 95 a5 00  	sllw	a1, a1, a0
80003308: b3 06 d6 00  	add	a3, a2, a3
8000330c: 23 30 d7 00  	sd	a3, 0(a4)
80003310: b3 86 b6 00  	add	a3, a3, a1
80003314: 23 80 06 00  	sb	zero, 0(a3)
80003318: 83 36 07 00  	ld	a3, 0(a4)
8000331c: 13 08 30 00  	li	a6, 3
80003320: bb 18 a8 00  	sllw	a7, a6, a0
80003324: b3 86 16 01  	add	a3, a3, a7
80003328: 13 06 00 f8  	li	a2, -128
8000332c: 23 80 c6 00  	sb	a2, 0(a3)
80003330: 83 36 07 00  	ld	a3, 0(a4)
80003334: 13 f6 f7 0f  	andi	a2, a5, 255
80003338: 9b d7 87 00  	srliw	a5, a5, 8
8000333c: 23 80 c6 00  	sb	a2, 0(a3)
80003340: 83 36 07 00  	ld	a3, 0(a4)
80003344: 93 f7 f7 0f  	andi	a5, a5, 255
80003348: b3 85 b6 00  	add	a1, a3, a1
8000334c: 23 80 f5 00  	sb	a5, 0(a1)
80003350: 03 36 07 00  	ld	a2, 0(a4)
80003354: 93 07 20 00  	li	a5, 2
80003358: bb 96 a7 00  	sllw	a3, a5, a0
8000335c: b3 07 16 01  	add	a5, a2, a7
80003360: 23 80 07 01  	sb	a6, 0(a5)
80003364: 83 37 07 00  	ld	a5, 0(a4)
80003368: 17 a7 00 00  	auipc	a4, 10
8000336c: 23 26 a7 ca  	sw	a0, -852(a4)
80003370: 13 07 70 fc  	li	a4, -57
80003374: b3 87 d7 00  	add	a5, a5, a3
80003378: 23 80 e7 00  	sb	a4, 0(a5)
8000337c: 67 80 00 00  	ret
80003380: 97 87 00 00  	auipc	a5, 8
80003384: 23 aa c7 d2  	sw	a2, -716(a5)
80003388: 6f f0 1f f5  	j	0x800032d8 <uart16550_done+0x34>

000000008000338c <uart16550_open>:
8000338c: 93 87 05 00  	mv	a5, a1
80003390: 13 01 01 ff  	addi	sp, sp, -16
80003394: 13 06 00 02  	li	a2, 32
80003398: 93 05 00 00  	li	a1, 0
8000339c: 13 85 07 00  	mv	a0, a5
800033a0: 23 34 11 00  	sd	ra, 8(sp)
800033a4: ef 50 80 1d  	jal	0x8000857c <memset>
800033a8: 83 30 81 00  	ld	ra, 8(sp)
800033ac: 37 97 00 00  	lui	a4, 9
800033b0: 1b 07 07 60  	addiw	a4, a4, 1536
800033b4: 23 2e e5 00  	sw	a4, 28(a0)
800033b8: 13 01 01 01  	addi	sp, sp, 16
800033bc: 67 80 00 00  	ret

00000000800033c0 <uart16550_prop>:
800033c0: 13 01 01 fe  	addi	sp, sp, -32
800033c4: 23 34 91 00  	sd	s1, 8(sp)
800033c8: 83 34 85 00  	ld	s1, 8(a0)
800033cc: 23 38 81 00  	sd	s0, 16(sp)
800033d0: 23 30 21 01  	sd	s2, 0(sp)
800033d4: 13 04 05 00  	mv	s0, a0
800033d8: 13 89 05 00  	mv	s2, a1
800033dc: 13 85 04 00  	mv	a0, s1
800033e0: 97 65 00 00  	auipc	a1, 6
800033e4: 93 85 85 da  	addi	a1, a1, -600
800033e8: 23 3c 11 00  	sd	ra, 24(sp)
800033ec: ef 50 80 21  	jal	0x80008604 <strcmp>
800033f0: 63 02 05 0a  	beqz	a0, 0x80003494 <uart16550_prop+0xd4>
800033f4: 97 65 00 00  	auipc	a1, 6
800033f8: 93 85 c5 af  	addi	a1, a1, -1284
800033fc: 13 85 04 00  	mv	a0, s1
80003400: ef 50 40 20  	jal	0x80008604 <strcmp>
80003404: 63 04 05 06  	beqz	a0, 0x8000346c <uart16550_prop+0xac>
80003408: 97 65 00 00  	auipc	a1, 6
8000340c: 93 85 85 f6  	addi	a1, a1, -152
80003410: 13 85 04 00  	mv	a0, s1
80003414: ef 50 00 1f  	jal	0x80008604 <strcmp>
80003418: 63 06 05 0c  	beqz	a0, 0x800034e4 <uart16550_prop+0x124>
8000341c: 97 65 00 00  	auipc	a1, 6
80003420: 93 85 45 f6  	addi	a1, a1, -156
80003424: 13 85 04 00  	mv	a0, s1
80003428: ef 50 c0 1d  	jal	0x80008604 <strcmp>
8000342c: 63 00 05 0e  	beqz	a0, 0x8000350c <uart16550_prop+0x14c>
80003430: 97 65 00 00  	auipc	a1, 6
80003434: 93 85 05 f6  	addi	a1, a1, -160
80003438: 13 85 04 00  	mv	a0, s1
8000343c: ef 50 80 1c  	jal	0x80008604 <strcmp>
80003440: 63 08 05 08  	beqz	a0, 0x800034d0 <uart16550_prop+0x110>
80003444: 97 65 00 00  	auipc	a1, 6
80003448: 93 85 c5 f5  	addi	a1, a1, -164
8000344c: 13 85 04 00  	mv	a0, s1
80003450: ef 50 40 1b  	jal	0x80008604 <strcmp>
80003454: 63 12 05 06  	bnez	a0, 0x800034b8 <uart16550_prop+0xf8>
80003458: 93 05 00 00  	li	a1, 0
8000345c: 13 05 04 00  	mv	a0, s0
80003460: ef e0 4f ea  	jal	0x80001b04 <fdt_get_value>
80003464: 23 2c a9 00  	sw	a0, 24(s2)
80003468: 6f 00 00 05  	j	0x800034b8 <uart16550_prop+0xf8>
8000346c: 83 37 04 00  	ld	a5, 0(s0)
80003470: 83 35 04 01  	ld	a1, 16(s0)
80003474: 03 34 01 01  	ld	s0, 16(sp)
80003478: 83 30 81 01  	ld	ra, 24(sp)
8000347c: 83 34 81 00  	ld	s1, 8(sp)
80003480: 03 b5 07 00  	ld	a0, 0(a5)
80003484: 13 06 89 00  	addi	a2, s2, 8
80003488: 03 39 01 00  	ld	s2, 0(sp)
8000348c: 13 01 01 02  	addi	sp, sp, 32
80003490: 6f e0 cf d4  	j	0x800019dc <fdt_get_address>
80003494: 97 65 00 00  	auipc	a1, 6
80003498: 93 85 45 ec  	addi	a1, a1, -316
8000349c: 13 05 04 00  	mv	a0, s0
800034a0: ef e0 0f eb  	jal	0x80001b50 <fdt_string_list_index>
800034a4: 93 07 f0 ff  	li	a5, -1
800034a8: 93 04 05 00  	mv	s1, a0
800034ac: 63 04 f5 08  	beq	a0, a5, 0x80003534 <uart16550_prop+0x174>
800034b0: 93 07 10 00  	li	a5, 1
800034b4: 23 20 f9 00  	sw	a5, 0(s2)
800034b8: 83 30 81 01  	ld	ra, 24(sp)
800034bc: 03 34 01 01  	ld	s0, 16(sp)
800034c0: 83 34 81 00  	ld	s1, 8(sp)
800034c4: 03 39 01 00  	ld	s2, 0(sp)
800034c8: 13 01 01 02  	addi	sp, sp, 32
800034cc: 67 80 00 00  	ret
800034d0: 93 05 00 00  	li	a1, 0
800034d4: 13 05 04 00  	mv	a0, s0
800034d8: ef e0 cf e2  	jal	0x80001b04 <fdt_get_value>
800034dc: 23 2e a9 00  	sw	a0, 28(s2)
800034e0: 6f f0 9f fd  	j	0x800034b8 <uart16550_prop+0xf8>
800034e4: 13 05 04 00  	mv	a0, s0
800034e8: 93 05 00 00  	li	a1, 0
800034ec: ef e0 8f e1  	jal	0x80001b04 <fdt_get_value>
800034f0: 83 30 81 01  	ld	ra, 24(sp)
800034f4: 03 34 01 01  	ld	s0, 16(sp)
800034f8: 23 2a a9 00  	sw	a0, 20(s2)
800034fc: 83 34 81 00  	ld	s1, 8(sp)
80003500: 03 39 01 00  	ld	s2, 0(sp)
80003504: 13 01 01 02  	addi	sp, sp, 32
80003508: 67 80 00 00  	ret
8000350c: 13 05 04 00  	mv	a0, s0
80003510: 93 05 00 00  	li	a1, 0
80003514: ef e0 0f df  	jal	0x80001b04 <fdt_get_value>
80003518: 83 30 81 01  	ld	ra, 24(sp)
8000351c: 03 34 01 01  	ld	s0, 16(sp)
80003520: 23 28 a9 00  	sw	a0, 16(s2)
80003524: 83 34 81 00  	ld	s1, 8(sp)
80003528: 03 39 01 00  	ld	s2, 0(sp)
8000352c: 13 01 01 02  	addi	sp, sp, 32
80003530: 67 80 00 00  	ret
80003534: 97 65 00 00  	auipc	a1, 6
80003538: 93 85 45 e3  	addi	a1, a1, -460
8000353c: 13 05 04 00  	mv	a0, s0
80003540: ef e0 0f e1  	jal	0x80001b50 <fdt_string_list_index>
80003544: e3 16 95 f6  	bne	a0, s1, 0x800034b0 <uart16550_prop+0xf0>
80003548: 83 34 84 00  	ld	s1, 8(s0)
8000354c: 6f f0 9f ea  	j	0x800033f4 <uart16550_prop+0x34>

0000000080003550 <uart16550_putchar>:
80003550: 97 a7 00 00  	auipc	a5, 10
80003554: 83 a7 47 ac  	lw	a5, -1340(a5)
80003558: 13 07 50 00  	li	a4, 5
8000355c: 97 a6 00 00  	auipc	a3, 10
80003560: 83 b6 46 b1  	ld	a3, -1260(a3)
80003564: 3b 17 f7 00  	sllw	a4, a4, a5
80003568: 33 87 e6 00  	add	a4, a3, a4
8000356c: 83 47 07 00  	lbu	a5, 0(a4)
80003570: 93 f7 07 02  	andi	a5, a5, 32
80003574: e3 8c 07 fe  	beqz	a5, 0x8000356c <uart16550_putchar+0x1c>
80003578: 23 80 a6 00  	sb	a0, 0(a3)
8000357c: 67 80 00 00  	ret

0000000080003580 <uart16550_getchar>:
80003580: 97 a6 00 00  	auipc	a3, 10
80003584: 83 a6 46 a9  	lw	a3, -1388(a3)
80003588: 93 07 50 00  	li	a5, 5
8000358c: 17 a7 00 00  	auipc	a4, 10
80003590: 03 37 47 ae  	ld	a4, -1308(a4)
80003594: bb 97 d7 00  	sllw	a5, a5, a3
80003598: b3 07 f7 00  	add	a5, a4, a5
8000359c: 83 c7 07 00  	lbu	a5, 0(a5)
800035a0: 93 f7 17 00  	andi	a5, a5, 1
800035a4: 63 88 07 00  	beqz	a5, 0x800035b4 <uart16550_getchar+0x34>
800035a8: 03 45 07 00  	lbu	a0, 0(a4)
800035ac: 13 75 f5 0f  	andi	a0, a0, 255
800035b0: 67 80 00 00  	ret
800035b4: 13 05 f0 ff  	li	a0, -1
800035b8: 67 80 00 00  	ret

00000000800035bc <query_uart16550>:
800035bc: 13 01 01 fa  	addi	sp, sp, -96
800035c0: 97 07 00 00  	auipc	a5, 0
800035c4: 93 87 c7 dc  	addi	a5, a5, -564
800035c8: 23 34 f1 02  	sd	a5, 40(sp)
800035cc: 97 07 00 00  	auipc	a5, 0
800035d0: 93 87 47 df  	addi	a5, a5, -524
800035d4: 23 38 f1 02  	sd	a5, 48(sp)
800035d8: 97 07 00 00  	auipc	a5, 0
800035dc: 93 87 c7 cc  	addi	a5, a5, -820
800035e0: 23 3c f1 02  	sd	a5, 56(sp)
800035e4: 93 05 81 02  	addi	a1, sp, 40
800035e8: 93 07 81 00  	addi	a5, sp, 8
800035ec: 23 3c 11 04  	sd	ra, 88(sp)
800035f0: 23 30 01 04  	sd	zero, 64(sp)
800035f4: 23 34 f1 04  	sd	a5, 72(sp)
800035f8: ef e0 0f a5  	jal	0x80001848 <fdt_scan>
800035fc: 83 30 81 05  	ld	ra, 88(sp)
80003600: 13 01 01 06  	addi	sp, sp, 96
80003604: 67 80 00 00  	ret

0000000080003608 <uart_litex_done>:
80003608: 83 a7 05 00  	lw	a5, 0(a1)
8000360c: 63 8e 07 00  	beqz	a5, 0x80003628 <uart_litex_done+0x20>
80003610: 83 b7 85 00  	ld	a5, 8(a1)
80003614: 63 8a 07 00  	beqz	a5, 0x80003628 <uart_litex_done+0x20>
80003618: 17 a7 00 00  	auipc	a4, 10
8000361c: 13 07 07 a6  	addi	a4, a4, -1440
80003620: 83 36 07 00  	ld	a3, 0(a4)
80003624: 63 84 06 00  	beqz	a3, 0x8000362c <uart_litex_done+0x24>
80003628: 67 80 00 00  	ret
8000362c: 23 30 f7 00  	sd	a5, 0(a4)
80003630: 67 80 00 00  	ret

0000000080003634 <uart_litex_open>:
80003634: 13 85 05 00  	mv	a0, a1
80003638: 13 06 00 01  	li	a2, 16
8000363c: 93 05 00 00  	li	a1, 0
80003640: 6f 40 d0 73  	j	0x8000857c <memset>

0000000080003644 <uart_litex_prop>:
80003644: 13 01 01 fd  	addi	sp, sp, -48
80003648: 23 38 21 01  	sd	s2, 16(sp)
8000364c: 03 39 85 00  	ld	s2, 8(a0)
80003650: 23 30 81 02  	sd	s0, 32(sp)
80003654: 23 3c 91 00  	sd	s1, 24(sp)
80003658: 13 04 05 00  	mv	s0, a0
8000365c: 93 84 05 00  	mv	s1, a1
80003660: 13 05 09 00  	mv	a0, s2
80003664: 97 65 00 00  	auipc	a1, 6
80003668: 93 85 45 b2  	addi	a1, a1, -1244
8000366c: 23 34 11 02  	sd	ra, 40(sp)
80003670: 23 34 31 01  	sd	s3, 8(sp)
80003674: ef 40 10 79  	jal	0x80008604 <strcmp>
80003678: 63 1a 05 04  	bnez	a0, 0x800036cc <uart_litex_prop+0x88>
8000367c: 83 39 04 01  	ld	s3, 16(s0)
80003680: 97 65 00 00  	auipc	a1, 6
80003684: 93 85 05 d3  	addi	a1, a1, -720
80003688: 13 85 09 00  	mv	a0, s3
8000368c: ef 40 90 77  	jal	0x80008604 <strcmp>
80003690: 63 14 05 02  	bnez	a0, 0x800036b8 <uart_litex_prop+0x74>
80003694: 93 07 10 00  	li	a5, 1
80003698: 23 a0 f4 00  	sw	a5, 0(s1)
8000369c: 83 30 81 02  	ld	ra, 40(sp)
800036a0: 03 34 01 02  	ld	s0, 32(sp)
800036a4: 83 34 81 01  	ld	s1, 24(sp)
800036a8: 03 39 01 01  	ld	s2, 16(sp)
800036ac: 83 39 81 00  	ld	s3, 8(sp)
800036b0: 13 01 01 03  	addi	sp, sp, 48
800036b4: 67 80 00 00  	ret
800036b8: 97 65 00 00  	auipc	a1, 6
800036bc: 93 85 85 d0  	addi	a1, a1, -760
800036c0: 13 85 09 00  	mv	a0, s3
800036c4: ef 40 10 74  	jal	0x80008604 <strcmp>
800036c8: e3 06 05 fc  	beqz	a0, 0x80003694 <uart_litex_prop+0x50>
800036cc: 97 65 00 00  	auipc	a1, 6
800036d0: 93 85 45 82  	addi	a1, a1, -2012
800036d4: 13 05 09 00  	mv	a0, s2
800036d8: ef 40 d0 72  	jal	0x80008604 <strcmp>
800036dc: e3 10 05 fc  	bnez	a0, 0x8000369c <uart_litex_prop+0x58>
800036e0: 83 37 04 00  	ld	a5, 0(s0)
800036e4: 83 35 04 01  	ld	a1, 16(s0)
800036e8: 03 34 01 02  	ld	s0, 32(sp)
800036ec: 83 30 81 02  	ld	ra, 40(sp)
800036f0: 03 39 01 01  	ld	s2, 16(sp)
800036f4: 83 39 81 00  	ld	s3, 8(sp)
800036f8: 03 b5 07 00  	ld	a0, 0(a5)
800036fc: 13 86 84 00  	addi	a2, s1, 8
80003700: 83 34 81 01  	ld	s1, 24(sp)
80003704: 13 01 01 03  	addi	sp, sp, 48
80003708: 6f e0 4f ad  	j	0x800019dc <fdt_get_address>

000000008000370c <uart_litex_putchar>:
8000370c: 17 a7 00 00  	auipc	a4, 10
80003710: 03 37 c7 96  	ld	a4, -1684(a4)
80003714: 83 27 47 00  	lw	a5, 4(a4)
80003718: 93 f7 17 00  	andi	a5, a5, 1
8000371c: e3 9c 07 fe  	bnez	a5, 0x80003714 <uart_litex_putchar+0x8>
80003720: 1b 05 05 00  	sext.w	a0, a0
80003724: 23 20 a7 00  	sw	a0, 0(a4)
80003728: 67 80 00 00  	ret

000000008000372c <uart_litex_getchar>:
8000372c: 17 a7 00 00  	auipc	a4, 10
80003730: 03 37 c7 94  	ld	a4, -1716(a4)
80003734: 83 27 87 00  	lw	a5, 8(a4)
80003738: 93 f7 17 00  	andi	a5, a5, 1
8000373c: 63 9c 07 00  	bnez	a5, 0x80003754 <uart_litex_getchar+0x28>
80003740: 03 25 07 00  	lw	a0, 0(a4)
80003744: 93 07 20 00  	li	a5, 2
80003748: 23 28 f7 00  	sw	a5, 16(a4)
8000374c: 1b 05 05 00  	sext.w	a0, a0
80003750: 67 80 00 00  	ret
80003754: 13 05 f0 ff  	li	a0, -1
80003758: 67 80 00 00  	ret

000000008000375c <query_uart_litex>:
8000375c: 13 01 01 fb  	addi	sp, sp, -80
80003760: 97 07 00 00  	auipc	a5, 0
80003764: 93 87 47 ed  	addi	a5, a5, -300
80003768: 23 3c f1 00  	sd	a5, 24(sp)
8000376c: 97 07 00 00  	auipc	a5, 0
80003770: 93 87 87 ed  	addi	a5, a5, -296
80003774: 23 30 f1 02  	sd	a5, 32(sp)
80003778: 97 07 00 00  	auipc	a5, 0
8000377c: 93 87 07 e9  	addi	a5, a5, -368
80003780: 23 34 f1 02  	sd	a5, 40(sp)
80003784: 93 05 81 01  	addi	a1, sp, 24
80003788: 93 07 81 00  	addi	a5, sp, 8
8000378c: 23 34 11 04  	sd	ra, 72(sp)
80003790: 23 38 01 02  	sd	zero, 48(sp)
80003794: 23 3c f1 02  	sd	a5, 56(sp)
80003798: ef e0 0f 8b  	jal	0x80001848 <fdt_scan>
8000379c: 83 30 81 04  	ld	ra, 72(sp)
800037a0: 13 01 01 05  	addi	sp, sp, 80
800037a4: 67 80 00 00  	ret

00000000800037a8 <finisher_done>:
800037a8: 83 a7 05 00  	lw	a5, 0(a1)
800037ac: 63 8e 07 00  	beqz	a5, 0x800037c8 <finisher_done+0x20>
800037b0: 83 b7 85 00  	ld	a5, 8(a1)
800037b4: 63 8a 07 00  	beqz	a5, 0x800037c8 <finisher_done+0x20>
800037b8: 17 a7 00 00  	auipc	a4, 10
800037bc: 13 07 87 8c  	addi	a4, a4, -1848
800037c0: 83 36 07 00  	ld	a3, 0(a4)
800037c4: 63 84 06 00  	beqz	a3, 0x800037cc <finisher_done+0x24>
800037c8: 67 80 00 00  	ret
800037cc: 23 30 f7 00  	sd	a5, 0(a4)
800037d0: 67 80 00 00  	ret

00000000800037d4 <finisher_open>:
800037d4: 13 85 05 00  	mv	a0, a1
800037d8: 13 06 00 01  	li	a2, 16
800037dc: 93 05 00 00  	li	a1, 0
800037e0: 6f 40 d0 59  	j	0x8000857c <memset>

00000000800037e4 <finisher_prop>:
800037e4: 13 01 01 fe  	addi	sp, sp, -32
800037e8: 23 30 21 01  	sd	s2, 0(sp)
800037ec: 03 39 85 00  	ld	s2, 8(a0)
800037f0: 23 38 81 00  	sd	s0, 16(sp)
800037f4: 23 34 91 00  	sd	s1, 8(sp)
800037f8: 13 04 05 00  	mv	s0, a0
800037fc: 93 84 05 00  	mv	s1, a1
80003800: 13 05 09 00  	mv	a0, s2
80003804: 97 65 00 00  	auipc	a1, 6
80003808: 93 85 45 98  	addi	a1, a1, -1660
8000380c: 23 3c 11 00  	sd	ra, 24(sp)
80003810: ef 40 50 5f  	jal	0x80008604 <strcmp>
80003814: 63 08 05 02  	beqz	a0, 0x80003844 <finisher_prop+0x60>
80003818: 97 55 00 00  	auipc	a1, 5
8000381c: 93 85 85 6d  	addi	a1, a1, 1752
80003820: 13 05 09 00  	mv	a0, s2
80003824: ef 40 10 5e  	jal	0x80008604 <strcmp>
80003828: 63 08 05 04  	beqz	a0, 0x80003878 <finisher_prop+0x94>
8000382c: 83 30 81 01  	ld	ra, 24(sp)
80003830: 03 34 01 01  	ld	s0, 16(sp)
80003834: 83 34 81 00  	ld	s1, 8(sp)
80003838: 03 39 01 00  	ld	s2, 0(sp)
8000383c: 13 01 01 02  	addi	sp, sp, 32
80003840: 67 80 00 00  	ret
80003844: 97 65 00 00  	auipc	a1, 6
80003848: 93 85 c5 b8  	addi	a1, a1, -1140
8000384c: 13 05 04 00  	mv	a0, s0
80003850: ef e0 0f b0  	jal	0x80001b50 <fdt_string_list_index>
80003854: 63 46 05 04  	bltz	a0, 0x800038a0 <finisher_prop+0xbc>
80003858: 83 30 81 01  	ld	ra, 24(sp)
8000385c: 03 34 01 01  	ld	s0, 16(sp)
80003860: 93 07 10 00  	li	a5, 1
80003864: 23 a0 f4 00  	sw	a5, 0(s1)
80003868: 03 39 01 00  	ld	s2, 0(sp)
8000386c: 83 34 81 00  	ld	s1, 8(sp)
80003870: 13 01 01 02  	addi	sp, sp, 32
80003874: 67 80 00 00  	ret
80003878: 83 37 04 00  	ld	a5, 0(s0)
8000387c: 83 35 04 01  	ld	a1, 16(s0)
80003880: 03 34 01 01  	ld	s0, 16(sp)
80003884: 83 30 81 01  	ld	ra, 24(sp)
80003888: 03 39 01 00  	ld	s2, 0(sp)
8000388c: 03 b5 07 00  	ld	a0, 0(a5)
80003890: 13 86 84 00  	addi	a2, s1, 8
80003894: 83 34 81 00  	ld	s1, 8(sp)
80003898: 13 01 01 02  	addi	sp, sp, 32
8000389c: 6f e0 0f 94  	j	0x800019dc <fdt_get_address>
800038a0: 03 39 84 00  	ld	s2, 8(s0)
800038a4: 6f f0 5f f7  	j	0x80003818 <finisher_prop+0x34>

00000000800038a8 <finisher_exit>:
800038a8: 97 97 00 00  	auipc	a5, 9
800038ac: 83 b7 87 7d  	ld	a5, 2008(a5)
800038b0: 63 88 07 02  	beqz	a5, 0x800038e0 <finisher_exit+0x38>
800038b4: 63 1a 05 00  	bnez	a0, 0x800038c8 <finisher_exit+0x20>
800038b8: 37 57 00 00  	lui	a4, 5
800038bc: 1b 07 57 55  	addiw	a4, a4, 1365
800038c0: 23 a0 e7 00  	sw	a4, 0(a5)
800038c4: 67 80 00 00  	ret
800038c8: 37 37 00 00  	lui	a4, 3
800038cc: 1b 15 05 01  	slliw	a0, a0, 16
800038d0: 13 07 37 33  	addi	a4, a4, 819
800038d4: 33 65 e5 00  	or	a0, a0, a4
800038d8: 1b 05 05 00  	sext.w	a0, a0
800038dc: 23 a0 a7 00  	sw	a0, 0(a5)
800038e0: 67 80 00 00  	ret

00000000800038e4 <query_finisher>:
800038e4: 13 01 01 fb  	addi	sp, sp, -80
800038e8: 97 07 00 00  	auipc	a5, 0
800038ec: 93 87 c7 ee  	addi	a5, a5, -276
800038f0: 23 3c f1 00  	sd	a5, 24(sp)
800038f4: 97 07 00 00  	auipc	a5, 0
800038f8: 93 87 07 ef  	addi	a5, a5, -272
800038fc: 23 30 f1 02  	sd	a5, 32(sp)
80003900: 97 07 00 00  	auipc	a5, 0
80003904: 93 87 87 ea  	addi	a5, a5, -344
80003908: 23 34 f1 02  	sd	a5, 40(sp)
8000390c: 93 05 81 01  	addi	a1, sp, 24
80003910: 93 07 81 00  	addi	a5, sp, 8
80003914: 23 34 11 04  	sd	ra, 72(sp)
80003918: 23 38 01 02  	sd	zero, 48(sp)
8000391c: 23 3c f1 02  	sd	a5, 56(sp)
80003920: ef d0 9f f2  	jal	0x80001848 <fdt_scan>
80003924: 83 30 81 04  	ld	ra, 72(sp)
80003928: 13 01 01 05  	addi	sp, sp, 80
8000392c: 67 80 00 00  	ret

0000000080003930 <get_f32_reg>:
80003930: 53 05 00 e0  	fmv.x.w	a0, ft0
80003934: 67 80 02 00  	jr	t0
80003938: 53 85 00 e0  	fmv.x.w	a0, ft1
8000393c: 67 80 02 00  	jr	t0
80003940: 53 05 01 e0  	fmv.x.w	a0, ft2
80003944: 67 80 02 00  	jr	t0
80003948: 53 85 01 e0  	fmv.x.w	a0, ft3
8000394c: 67 80 02 00  	jr	t0
80003950: 53 05 02 e0  	fmv.x.w	a0, ft4
80003954: 67 80 02 00  	jr	t0
80003958: 53 85 02 e0  	fmv.x.w	a0, ft5
8000395c: 67 80 02 00  	jr	t0
80003960: 53 05 03 e0  	fmv.x.w	a0, ft6
80003964: 67 80 02 00  	jr	t0
80003968: 53 85 03 e0  	fmv.x.w	a0, ft7
8000396c: 67 80 02 00  	jr	t0
80003970: 53 05 04 e0  	fmv.x.w	a0, fs0
80003974: 67 80 02 00  	jr	t0
80003978: 53 85 04 e0  	fmv.x.w	a0, fs1
8000397c: 67 80 02 00  	jr	t0
80003980: 53 05 05 e0  	fmv.x.w	a0, fa0
80003984: 67 80 02 00  	jr	t0
80003988: 53 85 05 e0  	fmv.x.w	a0, fa1
8000398c: 67 80 02 00  	jr	t0
80003990: 53 05 06 e0  	fmv.x.w	a0, fa2
80003994: 67 80 02 00  	jr	t0
80003998: 53 85 06 e0  	fmv.x.w	a0, fa3
8000399c: 67 80 02 00  	jr	t0
800039a0: 53 05 07 e0  	fmv.x.w	a0, fa4
800039a4: 67 80 02 00  	jr	t0
800039a8: 53 85 07 e0  	fmv.x.w	a0, fa5
800039ac: 67 80 02 00  	jr	t0
800039b0: 53 05 08 e0  	fmv.x.w	a0, fa6
800039b4: 67 80 02 00  	jr	t0
800039b8: 53 85 08 e0  	fmv.x.w	a0, fa7
800039bc: 67 80 02 00  	jr	t0
800039c0: 53 05 09 e0  	fmv.x.w	a0, fs2
800039c4: 67 80 02 00  	jr	t0
800039c8: 53 85 09 e0  	fmv.x.w	a0, fs3
800039cc: 67 80 02 00  	jr	t0
800039d0: 53 05 0a e0  	fmv.x.w	a0, fs4
800039d4: 67 80 02 00  	jr	t0
800039d8: 53 85 0a e0  	fmv.x.w	a0, fs5
800039dc: 67 80 02 00  	jr	t0
800039e0: 53 05 0b e0  	fmv.x.w	a0, fs6
800039e4: 67 80 02 00  	jr	t0
800039e8: 53 85 0b e0  	fmv.x.w	a0, fs7
800039ec: 67 80 02 00  	jr	t0
800039f0: 53 05 0c e0  	fmv.x.w	a0, fs8
800039f4: 67 80 02 00  	jr	t0
800039f8: 53 85 0c e0  	fmv.x.w	a0, fs9
800039fc: 67 80 02 00  	jr	t0
80003a00: 53 05 0d e0  	fmv.x.w	a0, fs10
80003a04: 67 80 02 00  	jr	t0
80003a08: 53 85 0d e0  	fmv.x.w	a0, fs11
80003a0c: 67 80 02 00  	jr	t0
80003a10: 53 05 0e e0  	fmv.x.w	a0, ft8
80003a14: 67 80 02 00  	jr	t0
80003a18: 53 85 0e e0  	fmv.x.w	a0, ft9
80003a1c: 67 80 02 00  	jr	t0
80003a20: 53 05 0f e0  	fmv.x.w	a0, ft10
80003a24: 67 80 02 00  	jr	t0
80003a28: 53 85 0f e0  	fmv.x.w	a0, ft11
80003a2c: 67 80 02 00  	jr	t0

0000000080003a30 <put_f32_reg>:
80003a30: 53 00 05 f0  	fmv.w.x	ft0, a0
80003a34: 67 80 02 00  	jr	t0
80003a38: d3 00 05 f0  	fmv.w.x	ft1, a0
80003a3c: 67 80 02 00  	jr	t0
80003a40: 53 01 05 f0  	fmv.w.x	ft2, a0
80003a44: 67 80 02 00  	jr	t0
80003a48: d3 01 05 f0  	fmv.w.x	ft3, a0
80003a4c: 67 80 02 00  	jr	t0
80003a50: 53 02 05 f0  	fmv.w.x	ft4, a0
80003a54: 67 80 02 00  	jr	t0
80003a58: d3 02 05 f0  	fmv.w.x	ft5, a0
80003a5c: 67 80 02 00  	jr	t0
80003a60: 53 03 05 f0  	fmv.w.x	ft6, a0
80003a64: 67 80 02 00  	jr	t0
80003a68: d3 03 05 f0  	fmv.w.x	ft7, a0
80003a6c: 67 80 02 00  	jr	t0
80003a70: 53 04 05 f0  	fmv.w.x	fs0, a0
80003a74: 67 80 02 00  	jr	t0
80003a78: d3 04 05 f0  	fmv.w.x	fs1, a0
80003a7c: 67 80 02 00  	jr	t0
80003a80: 53 05 05 f0  	fmv.w.x	fa0, a0
80003a84: 67 80 02 00  	jr	t0
80003a88: d3 05 05 f0  	fmv.w.x	fa1, a0
80003a8c: 67 80 02 00  	jr	t0
80003a90: 53 06 05 f0  	fmv.w.x	fa2, a0
80003a94: 67 80 02 00  	jr	t0
80003a98: d3 06 05 f0  	fmv.w.x	fa3, a0
80003a9c: 67 80 02 00  	jr	t0
80003aa0: 53 07 05 f0  	fmv.w.x	fa4, a0
80003aa4: 67 80 02 00  	jr	t0
80003aa8: d3 07 05 f0  	fmv.w.x	fa5, a0
80003aac: 67 80 02 00  	jr	t0
80003ab0: 53 08 05 f0  	fmv.w.x	fa6, a0
80003ab4: 67 80 02 00  	jr	t0
80003ab8: d3 08 05 f0  	fmv.w.x	fa7, a0
80003abc: 67 80 02 00  	jr	t0
80003ac0: 53 09 05 f0  	fmv.w.x	fs2, a0
80003ac4: 67 80 02 00  	jr	t0
80003ac8: d3 09 05 f0  	fmv.w.x	fs3, a0
80003acc: 67 80 02 00  	jr	t0
80003ad0: 53 0a 05 f0  	fmv.w.x	fs4, a0
80003ad4: 67 80 02 00  	jr	t0
80003ad8: d3 0a 05 f0  	fmv.w.x	fs5, a0
80003adc: 67 80 02 00  	jr	t0
80003ae0: 53 0b 05 f0  	fmv.w.x	fs6, a0
80003ae4: 67 80 02 00  	jr	t0
80003ae8: d3 0b 05 f0  	fmv.w.x	fs7, a0
80003aec: 67 80 02 00  	jr	t0
80003af0: 53 0c 05 f0  	fmv.w.x	fs8, a0
80003af4: 67 80 02 00  	jr	t0
80003af8: d3 0c 05 f0  	fmv.w.x	fs9, a0
80003afc: 67 80 02 00  	jr	t0
80003b00: 53 0d 05 f0  	fmv.w.x	fs10, a0
80003b04: 67 80 02 00  	jr	t0
80003b08: d3 0d 05 f0  	fmv.w.x	fs11, a0
80003b0c: 67 80 02 00  	jr	t0
80003b10: 53 0e 05 f0  	fmv.w.x	ft8, a0
80003b14: 67 80 02 00  	jr	t0
80003b18: d3 0e 05 f0  	fmv.w.x	ft9, a0
80003b1c: 67 80 02 00  	jr	t0
80003b20: 53 0f 05 f0  	fmv.w.x	ft10, a0
80003b24: 67 80 02 00  	jr	t0
80003b28: d3 0f 05 f0  	fmv.w.x	ft11, a0
80003b2c: 67 80 02 00  	jr	t0

0000000080003b30 <get_f64_reg>:
80003b30: 53 05 00 e2  	<unknown>
80003b34: 67 80 02 00  	jr	t0
80003b38: 53 85 00 e2  	<unknown>
80003b3c: 67 80 02 00  	jr	t0
80003b40: 53 05 01 e2  	<unknown>
80003b44: 67 80 02 00  	jr	t0
80003b48: 53 85 01 e2  	<unknown>
80003b4c: 67 80 02 00  	jr	t0
80003b50: 53 05 02 e2  	<unknown>
80003b54: 67 80 02 00  	jr	t0
80003b58: 53 85 02 e2  	<unknown>
80003b5c: 67 80 02 00  	jr	t0
80003b60: 53 05 03 e2  	<unknown>
80003b64: 67 80 02 00  	jr	t0
80003b68: 53 85 03 e2  	<unknown>
80003b6c: 67 80 02 00  	jr	t0
80003b70: 53 05 04 e2  	<unknown>
80003b74: 67 80 02 00  	jr	t0
80003b78: 53 85 04 e2  	<unknown>
80003b7c: 67 80 02 00  	jr	t0
80003b80: 53 05 05 e2  	<unknown>
80003b84: 67 80 02 00  	jr	t0
80003b88: 53 85 05 e2  	<unknown>
80003b8c: 67 80 02 00  	jr	t0
80003b90: 53 05 06 e2  	<unknown>
80003b94: 67 80 02 00  	jr	t0
80003b98: 53 85 06 e2  	<unknown>
80003b9c: 67 80 02 00  	jr	t0
80003ba0: 53 05 07 e2  	<unknown>
80003ba4: 67 80 02 00  	jr	t0
80003ba8: 53 85 07 e2  	<unknown>
80003bac: 67 80 02 00  	jr	t0
80003bb0: 53 05 08 e2  	<unknown>
80003bb4: 67 80 02 00  	jr	t0
80003bb8: 53 85 08 e2  	<unknown>
80003bbc: 67 80 02 00  	jr	t0
80003bc0: 53 05 09 e2  	<unknown>
80003bc4: 67 80 02 00  	jr	t0
80003bc8: 53 85 09 e2  	<unknown>
80003bcc: 67 80 02 00  	jr	t0
80003bd0: 53 05 0a e2  	<unknown>
80003bd4: 67 80 02 00  	jr	t0
80003bd8: 53 85 0a e2  	<unknown>
80003bdc: 67 80 02 00  	jr	t0
80003be0: 53 05 0b e2  	<unknown>
80003be4: 67 80 02 00  	jr	t0
80003be8: 53 85 0b e2  	<unknown>
80003bec: 67 80 02 00  	jr	t0
80003bf0: 53 05 0c e2  	<unknown>
80003bf4: 67 80 02 00  	jr	t0
80003bf8: 53 85 0c e2  	<unknown>
80003bfc: 67 80 02 00  	jr	t0
80003c00: 53 05 0d e2  	<unknown>
80003c04: 67 80 02 00  	jr	t0
80003c08: 53 85 0d e2  	<unknown>
80003c0c: 67 80 02 00  	jr	t0
80003c10: 53 05 0e e2  	<unknown>
80003c14: 67 80 02 00  	jr	t0
80003c18: 53 85 0e e2  	<unknown>
80003c1c: 67 80 02 00  	jr	t0
80003c20: 53 05 0f e2  	<unknown>
80003c24: 67 80 02 00  	jr	t0
80003c28: 53 85 0f e2  	<unknown>
80003c2c: 67 80 02 00  	jr	t0

0000000080003c30 <put_f64_reg>:
80003c30: 53 00 05 f2  	<unknown>
80003c34: 67 80 02 00  	jr	t0
80003c38: d3 00 05 f2  	<unknown>
80003c3c: 67 80 02 00  	jr	t0
80003c40: 53 01 05 f2  	<unknown>
80003c44: 67 80 02 00  	jr	t0
80003c48: d3 01 05 f2  	<unknown>
80003c4c: 67 80 02 00  	jr	t0
80003c50: 53 02 05 f2  	<unknown>
80003c54: 67 80 02 00  	jr	t0
80003c58: d3 02 05 f2  	<unknown>
80003c5c: 67 80 02 00  	jr	t0
80003c60: 53 03 05 f2  	<unknown>
80003c64: 67 80 02 00  	jr	t0
80003c68: d3 03 05 f2  	<unknown>
80003c6c: 67 80 02 00  	jr	t0
80003c70: 53 04 05 f2  	<unknown>
80003c74: 67 80 02 00  	jr	t0
80003c78: d3 04 05 f2  	<unknown>
80003c7c: 67 80 02 00  	jr	t0
80003c80: 53 05 05 f2  	<unknown>
80003c84: 67 80 02 00  	jr	t0
80003c88: d3 05 05 f2  	<unknown>
80003c8c: 67 80 02 00  	jr	t0
80003c90: 53 06 05 f2  	<unknown>
80003c94: 67 80 02 00  	jr	t0
80003c98: d3 06 05 f2  	<unknown>
80003c9c: 67 80 02 00  	jr	t0
80003ca0: 53 07 05 f2  	<unknown>
80003ca4: 67 80 02 00  	jr	t0
80003ca8: d3 07 05 f2  	<unknown>
80003cac: 67 80 02 00  	jr	t0
80003cb0: 53 08 05 f2  	<unknown>
80003cb4: 67 80 02 00  	jr	t0
80003cb8: d3 08 05 f2  	<unknown>
80003cbc: 67 80 02 00  	jr	t0
80003cc0: 53 09 05 f2  	<unknown>
80003cc4: 67 80 02 00  	jr	t0
80003cc8: d3 09 05 f2  	<unknown>
80003ccc: 67 80 02 00  	jr	t0
80003cd0: 53 0a 05 f2  	<unknown>
80003cd4: 67 80 02 00  	jr	t0
80003cd8: d3 0a 05 f2  	<unknown>
80003cdc: 67 80 02 00  	jr	t0
80003ce0: 53 0b 05 f2  	<unknown>
80003ce4: 67 80 02 00  	jr	t0
80003ce8: d3 0b 05 f2  	<unknown>
80003cec: 67 80 02 00  	jr	t0
80003cf0: 53 0c 05 f2  	<unknown>
80003cf4: 67 80 02 00  	jr	t0
80003cf8: d3 0c 05 f2  	<unknown>
80003cfc: 67 80 02 00  	jr	t0
80003d00: 53 0d 05 f2  	<unknown>
80003d04: 67 80 02 00  	jr	t0
80003d08: d3 0d 05 f2  	<unknown>
80003d0c: 67 80 02 00  	jr	t0
80003d10: 53 0e 05 f2  	<unknown>
80003d14: 67 80 02 00  	jr	t0
80003d18: d3 0e 05 f2  	<unknown>
80003d1c: 67 80 02 00  	jr	t0
80003d20: 53 0f 05 f2  	<unknown>
80003d24: 67 80 02 00  	jr	t0
80003d28: d3 0f 05 f2  	<unknown>
80003d2c: 67 80 02 00  	jr	t0

0000000080003d30 <truly_illegal_insn.constprop.0>:
80003d30: 6f e0 df 87  	j	0x800025ac <redirect_trap>

0000000080003d34 <illegal_insn_trap>:
80003d34: 13 88 05 00  	mv	a6, a1
80003d38: 93 07 06 00  	mv	a5, a2
80003d3c: f3 25 00 30  	csrr	a1, mstatus
80003d40: 73 27 30 34  	csrr	a4, mtval
80003d44: 93 08 30 00  	li	a7, 3
80003d48: 13 73 37 00  	andi	t1, a4, 3
80003d4c: 63 1a 13 03  	bne	t1, a7, 0x80003d80 <illegal_insn_trap+0x4c>
80003d50: 93 86 47 00  	addi	a3, a5, 4
80003d54: 73 90 16 34  	csrw	mepc, a3
80003d58: 97 58 00 00  	auipc	a7, 5
80003d5c: 93 88 08 e1  	addi	a7, a7, -496
80003d60: 13 76 c7 07  	andi	a2, a4, 124
80003d64: 33 06 16 01  	add	a2, a2, a7
80003d68: 03 23 06 00  	lw	t1, 0(a2)
80003d6c: 93 86 05 00  	mv	a3, a1
80003d70: 13 86 07 00  	mv	a2, a5
80003d74: 33 03 13 01  	add	t1, t1, a7
80003d78: 93 05 08 00  	mv	a1, a6
80003d7c: 67 00 03 00  	jr	t1
80003d80: 63 08 07 00  	beqz	a4, 0x80003d90 <illegal_insn_trap+0x5c>
80003d84: 13 06 07 00  	mv	a2, a4
80003d88: 13 85 07 00  	mv	a0, a5
80003d8c: 6f f0 5f fa  	j	0x80003d30 <truly_illegal_insn.constprop.0>
80003d90: b7 05 0a 00  	lui	a1, 160
80003d94: f3 a6 05 30  	csrrs	a3, mstatus, a1
80003d98: 03 67 06 00  	lwu	a4, 0(a2)
80003d9c: 73 90 06 30  	csrw	mstatus, a3
80003da0: 13 76 37 00  	andi	a2, a4, 3
80003da4: 93 85 06 00  	mv	a1, a3
80003da8: e3 04 16 fb  	beq	a2, a7, 0x80003d50 <illegal_insn_trap+0x1c>
80003dac: 6f f0 9f fd  	j	0x80003d84 <illegal_insn_trap+0x50>

0000000080003db0 <truly_illegal_insn>:
80003db0: 13 05 06 00  	mv	a0, a2
80003db4: 93 85 06 00  	mv	a1, a3
80003db8: 13 06 07 00  	mv	a2, a4
80003dbc: 6f e0 0f ff  	j	0x800025ac <redirect_trap>

0000000080003dc0 <emulate_system_opcode>:
80003dc0: b7 27 00 00  	lui	a5, 2
80003dc4: 93 87 07 80  	addi	a5, a5, -2048
80003dc8: b3 f7 f6 00  	and	a5, a3, a5
80003dcc: 13 03 f0 7f  	li	t1, 2047
80003dd0: 93 08 05 00  	mv	a7, a0
80003dd4: 93 85 06 00  	mv	a1, a3
80003dd8: 13 05 06 00  	mv	a0, a2
80003ddc: 13 58 c7 00  	srli	a6, a4, 12
80003de0: 1b 56 47 01  	srliw	a2, a4, 20
80003de4: 63 62 f3 04  	bltu	t1, a5, 0x80003e28 <emulate_system_opcode+0x68>
80003de8: f3 26 60 10  	csrr	a3, scounteren
80003dec: b7 17 00 00  	lui	a5, 1
80003df0: 93 87 17 c0  	addi	a5, a5, -1023
80003df4: 63 16 f6 02  	bne	a2, a5, 0x80003e20 <emulate_system_opcode+0x60>
80003df8: 93 f6 26 00  	andi	a3, a3, 2
80003dfc: 63 82 06 02  	beqz	a3, 0x80003e20 <emulate_system_opcode+0x60>
80003e00: 97 97 00 00  	auipc	a5, 9
80003e04: 83 b7 87 24  	ld	a5, 584(a5)
80003e08: 03 b3 07 00  	ld	t1, 0(a5)
80003e0c: 13 76 48 00  	andi	a2, a6, 4
80003e10: 93 77 78 00  	andi	a5, a6, 7
80003e14: 63 1c 06 02  	bnez	a2, 0x80003e4c <emulate_system_opcode+0x8c>
80003e18: 13 78 68 00  	andi	a6, a6, 6
80003e1c: 63 1e 08 02  	bnez	a6, 0x80003e58 <emulate_system_opcode+0x98>
80003e20: 13 06 07 00  	mv	a2, a4
80003e24: 6f f0 df f0  	j	0x80003d30 <truly_illegal_insn.constprop.0>
80003e28: b7 17 00 00  	lui	a5, 1
80003e2c: 93 87 17 c0  	addi	a5, a5, -1023
80003e30: e3 18 f6 fe  	bne	a2, a5, 0x80003e20 <emulate_system_opcode+0x60>
80003e34: 97 97 00 00  	auipc	a5, 9
80003e38: 83 b7 47 21  	ld	a5, 532(a5)
80003e3c: 03 b3 07 00  	ld	t1, 0(a5)
80003e40: 13 76 48 00  	andi	a2, a6, 4
80003e44: 93 77 78 00  	andi	a5, a6, 7
80003e48: e3 08 06 fc  	beqz	a2, 0x80003e18 <emulate_system_opcode+0x58>
80003e4c: 93 87 a7 ff  	addi	a5, a5, -6
80003e50: 93 06 10 00  	li	a3, 1
80003e54: e3 e6 f6 fc  	bltu	a3, a5, 0x80003e20 <emulate_system_opcode+0x60>
80003e58: 93 57 f7 00  	srli	a5, a4, 15
80003e5c: 93 f7 f7 01  	andi	a5, a5, 31
80003e60: e3 90 07 fc  	bnez	a5, 0x80003e20 <emulate_system_opcode+0x60>
80003e64: 13 55 47 00  	srli	a0, a4, 4
80003e68: 13 75 85 0f  	andi	a0, a0, 248
80003e6c: 33 85 a8 00  	add	a0, a7, a0
80003e70: 23 30 65 00  	sd	t1, 0(a0)
80003e74: 67 80 00 00  	ret

0000000080003e78 <emulate_fp>:
80003e78: b7 67 00 00  	lui	a5, 6
80003e7c: b3 f7 f6 00  	and	a5, a3, a5
80003e80: 63 8c 07 02  	beqz	a5, 0x80003eb8 <emulate_fp+0x40>
80003e84: 93 57 97 01  	srli	a5, a4, 25
80003e88: 17 53 00 00  	auipc	t1, 5
80003e8c: 13 03 03 d6  	addi	t1, t1, -672
80003e90: 93 f7 c7 07  	andi	a5, a5, 124
80003e94: b3 87 67 00  	add	a5, a5, t1
80003e98: 83 a7 07 00  	lw	a5, 0(a5)
80003e9c: 33 83 67 00  	add	t1, a5, t1
80003ea0: f3 28 20 00  	csrr	a7, frm
80003ea4: b7 77 00 00  	lui	a5, 7
80003ea8: 33 78 f7 00  	and	a6, a4, a5
80003eac: 13 82 08 00  	mv	tp, a7
80003eb0: 63 16 f8 00  	bne	a6, a5, 0x80003ebc <emulate_fp+0x44>
80003eb4: 67 00 03 00  	jr	t1
80003eb8: 6f f0 9f ef  	j	0x80003db0 <truly_illegal_insn>
80003ebc: 93 57 c7 00  	srli	a5, a4, 12
80003ec0: 93 f7 77 00  	andi	a5, a5, 7
80003ec4: 13 08 40 00  	li	a6, 4
80003ec8: e3 68 f8 fe  	bltu	a6, a5, 0x80003eb8 <emulate_fp+0x40>
80003ecc: 13 82 07 00  	mv	tp, a5
80003ed0: 6f f0 5f fe  	j	0x80003eb4 <emulate_fp+0x3c>

0000000080003ed4 <emulate_any_fadd>:
80003ed4: 13 01 01 ff  	addi	sp, sp, -16
80003ed8: 13 58 97 01  	srli	a6, a4, 25
80003edc: 23 30 81 00  	sd	s0, 0(sp)
80003ee0: 23 34 11 00  	sd	ra, 8(sp)
80003ee4: 13 78 38 00  	andi	a6, a6, 3
80003ee8: 13 04 07 00  	mv	s0, a4
80003eec: 63 0e 08 06  	beqz	a6, 0x80003f68 <emulate_any_fadd+0x94>
80003ef0: 93 08 10 00  	li	a7, 1
80003ef4: 63 12 18 07  	bne	a6, a7, 0x80003f58 <emulate_any_fadd+0x84>
80003ef8: 13 55 c7 00  	srli	a0, a4, 12
80003efc: 93 56 17 01  	srli	a3, a4, 17
80003f00: 93 97 07 02  	slli	a5, a5, 32
80003f04: 13 75 85 0f  	andi	a0, a0, 248
80003f08: 17 07 00 00  	auipc	a4, 0
80003f0c: 33 07 a7 00  	add	a4, a4, a0
80003f10: e7 02 87 c2  	jalr	t0, -984(a4)
80003f14: 13 07 05 00  	mv	a4, a0
80003f18: 13 54 44 00  	srli	s0, s0, 4
80003f1c: 13 f5 86 0f  	andi	a0, a3, 248
80003f20: 97 06 00 00  	auipc	a3, 0
80003f24: b3 86 a6 00  	add	a3, a3, a0
80003f28: e7 82 06 c1  	jalr	t0, -1008(a3)
80003f2c: b3 c5 a7 00  	xor	a1, a5, a0
80003f30: 13 05 07 00  	mv	a0, a4
80003f34: ef 10 10 1e  	jal	0x80005914 <f64_add>
80003f38: 13 74 84 0f  	andi	s0, s0, 248
80003f3c: 97 07 00 00  	auipc	a5, 0
80003f40: b3 87 87 00  	add	a5, a5, s0
80003f44: e7 82 47 cf  	jalr	t0, -780(a5)
80003f48: 83 30 81 00  	ld	ra, 8(sp)
80003f4c: 03 34 01 00  	ld	s0, 0(sp)
80003f50: 13 01 01 01  	addi	sp, sp, 16
80003f54: 67 80 00 00  	ret
80003f58: 03 34 01 00  	ld	s0, 0(sp)
80003f5c: 83 30 81 00  	ld	ra, 8(sp)
80003f60: 13 01 01 01  	addi	sp, sp, 16
80003f64: 6f f0 df e4  	j	0x80003db0 <truly_illegal_insn>
80003f68: 93 56 17 01  	srli	a3, a4, 17
80003f6c: 13 55 c7 00  	srli	a0, a4, 12
80003f70: 13 75 85 0f  	andi	a0, a0, 248
80003f74: 17 07 00 00  	auipc	a4, 0
80003f78: 33 07 a7 00  	add	a4, a4, a0
80003f7c: e7 02 c7 9b  	jalr	t0, -1604(a4)
80003f80: 1b 07 05 00  	sext.w	a4, a0
80003f84: 13 f5 86 0f  	andi	a0, a3, 248
80003f88: 97 06 00 00  	auipc	a3, 0
80003f8c: b3 86 a6 00  	add	a3, a3, a0
80003f90: e7 82 86 9a  	jalr	t0, -1624(a3)
80003f94: 9b 05 05 00  	sext.w	a1, a0
80003f98: b3 c5 b7 00  	xor	a1, a5, a1
80003f9c: 13 05 07 00  	mv	a0, a4
80003fa0: 13 54 44 00  	srli	s0, s0, 4
80003fa4: ef 10 80 0d  	jal	0x8000507c <f32_add>
80003fa8: 13 74 84 0f  	andi	s0, s0, 248
80003fac: 97 07 00 00  	auipc	a5, 0
80003fb0: b3 87 87 00  	add	a5, a5, s0
80003fb4: e7 82 47 a8  	jalr	t0, -1404(a5)
80003fb8: 83 30 81 00  	ld	ra, 8(sp)
80003fbc: 03 34 01 00  	ld	s0, 0(sp)
80003fc0: 13 01 01 01  	addi	sp, sp, 16
80003fc4: 67 80 00 00  	ret

0000000080003fc8 <emulate_fadd>:
80003fc8: 93 07 00 00  	li	a5, 0
80003fcc: 6f f0 9f f0  	j	0x80003ed4 <emulate_any_fadd>

0000000080003fd0 <emulate_fsub>:
80003fd0: b7 07 00 80  	lui	a5, 524288
80003fd4: 6f f0 1f f0  	j	0x80003ed4 <emulate_any_fadd>

0000000080003fd8 <emulate_fmul>:
80003fd8: 13 01 01 ff  	addi	sp, sp, -16
80003fdc: 93 57 97 01  	srli	a5, a4, 25
80003fe0: 23 30 81 00  	sd	s0, 0(sp)
80003fe4: 23 34 11 00  	sd	ra, 8(sp)
80003fe8: 93 f7 37 00  	andi	a5, a5, 3
80003fec: 13 04 07 00  	mv	s0, a4
80003ff0: 63 8c 07 06  	beqz	a5, 0x80004068 <emulate_fmul+0x90>
80003ff4: 13 08 10 00  	li	a6, 1
80003ff8: 63 90 07 07  	bne	a5, a6, 0x80004058 <emulate_fmul+0x80>
80003ffc: 13 55 c7 00  	srli	a0, a4, 12
80004000: 13 75 85 0f  	andi	a0, a0, 248
80004004: 13 57 17 01  	srli	a4, a4, 17
80004008: 97 07 00 00  	auipc	a5, 0
8000400c: b3 87 a7 00  	add	a5, a5, a0
80004010: e7 82 87 b2  	jalr	t0, -1240(a5)
80004014: 93 07 05 00  	mv	a5, a0
80004018: 13 54 44 00  	srli	s0, s0, 4
8000401c: 13 75 87 0f  	andi	a0, a4, 248
80004020: 17 07 00 00  	auipc	a4, 0
80004024: 33 07 a7 00  	add	a4, a4, a0
80004028: e7 02 07 b1  	jalr	t0, -1264(a4)
8000402c: 93 05 05 00  	mv	a1, a0
80004030: 13 85 07 00  	mv	a0, a5
80004034: ef 10 90 54  	jal	0x80005d7c <f64_mul>
80004038: 13 74 84 0f  	andi	s0, s0, 248
8000403c: 97 07 00 00  	auipc	a5, 0
80004040: b3 87 87 00  	add	a5, a5, s0
80004044: e7 82 47 bf  	jalr	t0, -1036(a5)
80004048: 83 30 81 00  	ld	ra, 8(sp)
8000404c: 03 34 01 00  	ld	s0, 0(sp)
80004050: 13 01 01 01  	addi	sp, sp, 16
80004054: 67 80 00 00  	ret
80004058: 03 34 01 00  	ld	s0, 0(sp)
8000405c: 83 30 81 00  	ld	ra, 8(sp)
80004060: 13 01 01 01  	addi	sp, sp, 16
80004064: 6f f0 df d4  	j	0x80003db0 <truly_illegal_insn>
80004068: 13 55 c7 00  	srli	a0, a4, 12
8000406c: 13 75 85 0f  	andi	a0, a0, 248
80004070: 13 57 17 01  	srli	a4, a4, 17
80004074: 97 07 00 00  	auipc	a5, 0
80004078: b3 87 a7 00  	add	a5, a5, a0
8000407c: e7 82 c7 8b  	jalr	t0, -1860(a5)
80004080: 9b 07 05 00  	sext.w	a5, a0
80004084: 13 54 44 00  	srli	s0, s0, 4
80004088: 13 75 87 0f  	andi	a0, a4, 248
8000408c: 17 07 00 00  	auipc	a4, 0
80004090: 33 07 a7 00  	add	a4, a4, a0
80004094: e7 02 47 8a  	jalr	t0, -1884(a4)
80004098: 93 05 05 00  	mv	a1, a0
8000409c: 13 85 07 00  	mv	a0, a5
800040a0: ef 10 00 3c  	jal	0x80005460 <f32_mul>
800040a4: 13 74 84 0f  	andi	s0, s0, 248
800040a8: 97 07 00 00  	auipc	a5, 0
800040ac: b3 87 87 00  	add	a5, a5, s0
800040b0: e7 82 87 98  	jalr	t0, -1656(a5)
800040b4: 83 30 81 00  	ld	ra, 8(sp)
800040b8: 03 34 01 00  	ld	s0, 0(sp)
800040bc: 13 01 01 01  	addi	sp, sp, 16
800040c0: 67 80 00 00  	ret

00000000800040c4 <emulate_fdiv>:
800040c4: 13 01 01 ff  	addi	sp, sp, -16
800040c8: 93 57 97 01  	srli	a5, a4, 25
800040cc: 23 30 81 00  	sd	s0, 0(sp)
800040d0: 23 34 11 00  	sd	ra, 8(sp)
800040d4: 93 f7 37 00  	andi	a5, a5, 3
800040d8: 13 04 07 00  	mv	s0, a4
800040dc: 63 8c 07 06  	beqz	a5, 0x80004154 <emulate_fdiv+0x90>
800040e0: 13 08 10 00  	li	a6, 1
800040e4: 63 90 07 07  	bne	a5, a6, 0x80004144 <emulate_fdiv+0x80>
800040e8: 13 55 c7 00  	srli	a0, a4, 12
800040ec: 13 75 85 0f  	andi	a0, a0, 248
800040f0: 13 57 17 01  	srli	a4, a4, 17
800040f4: 97 07 00 00  	auipc	a5, 0
800040f8: b3 87 a7 00  	add	a5, a5, a0
800040fc: e7 82 c7 a3  	jalr	t0, -1476(a5)
80004100: 93 07 05 00  	mv	a5, a0
80004104: 13 54 44 00  	srli	s0, s0, 4
80004108: 13 75 87 0f  	andi	a0, a4, 248
8000410c: 17 07 00 00  	auipc	a4, 0
80004110: 33 07 a7 00  	add	a4, a4, a0
80004114: e7 02 47 a2  	jalr	t0, -1500(a4)
80004118: 93 05 05 00  	mv	a1, a0
8000411c: 13 85 07 00  	mv	a0, a5
80004120: ef 10 50 01  	jal	0x80005934 <f64_div>
80004124: 13 74 84 0f  	andi	s0, s0, 248
80004128: 97 07 00 00  	auipc	a5, 0
8000412c: b3 87 87 00  	add	a5, a5, s0
80004130: e7 82 87 b0  	jalr	t0, -1272(a5)
80004134: 83 30 81 00  	ld	ra, 8(sp)
80004138: 03 34 01 00  	ld	s0, 0(sp)
8000413c: 13 01 01 01  	addi	sp, sp, 16
80004140: 67 80 00 00  	ret
80004144: 03 34 01 00  	ld	s0, 0(sp)
80004148: 83 30 81 00  	ld	ra, 8(sp)
8000414c: 13 01 01 01  	addi	sp, sp, 16
80004150: 6f f0 1f c6  	j	0x80003db0 <truly_illegal_insn>
80004154: 13 55 c7 00  	srli	a0, a4, 12
80004158: 13 75 85 0f  	andi	a0, a0, 248
8000415c: 13 57 17 01  	srli	a4, a4, 17
80004160: 97 f7 ff ff  	auipc	a5, 1048575
80004164: b3 87 a7 00  	add	a5, a5, a0
80004168: e7 82 07 7d  	jalr	t0, 2000(a5)
8000416c: 9b 07 05 00  	sext.w	a5, a0
80004170: 13 54 44 00  	srli	s0, s0, 4
80004174: 13 75 87 0f  	andi	a0, a4, 248
80004178: 17 f7 ff ff  	auipc	a4, 1048575
8000417c: 33 07 a7 00  	add	a4, a4, a0
80004180: e7 02 87 7b  	jalr	t0, 1976(a4)
80004184: 93 05 05 00  	mv	a1, a0
80004188: 13 85 07 00  	mv	a0, a5
8000418c: ef 00 10 72  	jal	0x800050ac <f32_div>
80004190: 13 74 84 0f  	andi	s0, s0, 248
80004194: 97 07 00 00  	auipc	a5, 0
80004198: b3 87 87 00  	add	a5, a5, s0
8000419c: e7 82 c7 89  	jalr	t0, -1892(a5)
800041a0: 83 30 81 00  	ld	ra, 8(sp)
800041a4: 03 34 01 00  	ld	s0, 0(sp)
800041a8: 13 01 01 01  	addi	sp, sp, 16
800041ac: 67 80 00 00  	ret

00000000800041b0 <emulate_fsqrt>:
800041b0: 13 01 01 ff  	addi	sp, sp, -16
800041b4: 93 57 47 01  	srli	a5, a4, 20
800041b8: 23 30 81 00  	sd	s0, 0(sp)
800041bc: 23 34 11 00  	sd	ra, 8(sp)
800041c0: 93 f7 f7 01  	andi	a5, a5, 31
800041c4: 13 04 07 00  	mv	s0, a4
800041c8: 63 9a 07 04  	bnez	a5, 0x8000421c <emulate_fsqrt+0x6c>
800041cc: 93 57 97 01  	srli	a5, a4, 25
800041d0: 93 f7 37 00  	andi	a5, a5, 3
800041d4: 63 8e 07 04  	beqz	a5, 0x80004230 <emulate_fsqrt+0x80>
800041d8: 13 07 10 00  	li	a4, 1
800041dc: 63 90 e7 04  	bne	a5, a4, 0x8000421c <emulate_fsqrt+0x6c>
800041e0: 13 55 c4 00  	srli	a0, s0, 12
800041e4: 13 54 44 00  	srli	s0, s0, 4
800041e8: 13 75 85 0f  	andi	a0, a0, 248
800041ec: 13 74 84 0f  	andi	s0, s0, 248
800041f0: 97 07 00 00  	auipc	a5, 0
800041f4: b3 87 a7 00  	add	a5, a5, a0
800041f8: e7 82 07 94  	jalr	t0, -1728(a5)
800041fc: ef 10 10 55  	jal	0x80005f4c <f64_sqrt>
80004200: 97 07 00 00  	auipc	a5, 0
80004204: b3 87 87 00  	add	a5, a5, s0
80004208: e7 82 07 a3  	jalr	t0, -1488(a5)
8000420c: 83 30 81 00  	ld	ra, 8(sp)
80004210: 03 34 01 00  	ld	s0, 0(sp)
80004214: 13 01 01 01  	addi	sp, sp, 16
80004218: 67 80 00 00  	ret
8000421c: 13 07 04 00  	mv	a4, s0
80004220: 03 34 01 00  	ld	s0, 0(sp)
80004224: 83 30 81 00  	ld	ra, 8(sp)
80004228: 13 01 01 01  	addi	sp, sp, 16
8000422c: 6f f0 5f b8  	j	0x80003db0 <truly_illegal_insn>
80004230: 13 55 c7 00  	srli	a0, a4, 12
80004234: 13 54 44 00  	srli	s0, s0, 4
80004238: 13 75 85 0f  	andi	a0, a0, 248
8000423c: 13 74 84 0f  	andi	s0, s0, 248
80004240: 97 f7 ff ff  	auipc	a5, 1048575
80004244: b3 87 a7 00  	add	a5, a5, a0
80004248: e7 82 07 6f  	jalr	t0, 1776(a5)
8000424c: ef 10 00 3a  	jal	0x800055ec <f32_sqrt>
80004250: 97 f7 ff ff  	auipc	a5, 1048575
80004254: b3 87 87 00  	add	a5, a5, s0
80004258: e7 82 07 7e  	jalr	t0, 2016(a5)
8000425c: 83 30 81 00  	ld	ra, 8(sp)
80004260: 03 34 01 00  	ld	s0, 0(sp)
80004264: 13 01 01 01  	addi	sp, sp, 16
80004268: 67 80 00 00  	ret

000000008000426c <emulate_fsgnj>:
8000426c: 93 58 c7 00  	srli	a7, a4, 12
80004270: 13 f8 78 00  	andi	a6, a7, 7
80004274: 93 07 20 00  	li	a5, 2
80004278: 1b 83 08 00  	sext.w	t1, a7
8000427c: 63 c4 07 0f  	blt	a5, a6, 0x80004364 <emulate_fsgnj+0xf8>
80004280: 93 57 97 01  	srli	a5, a4, 25
80004284: 93 f7 37 00  	andi	a5, a5, 3
80004288: 63 8a 07 06  	beqz	a5, 0x800042fc <emulate_fsgnj+0x90>
8000428c: 13 03 10 00  	li	t1, 1
80004290: 63 9a 67 0c  	bne	a5, t1, 0x80004364 <emulate_fsgnj+0xf8>
80004294: 93 57 17 01  	srli	a5, a4, 17
80004298: 13 f5 88 0f  	andi	a0, a7, 248
8000429c: 97 06 00 00  	auipc	a3, 0
800042a0: b3 86 a6 00  	add	a3, a3, a0
800042a4: e7 82 46 89  	jalr	t0, -1900(a3)
800042a8: 93 06 05 00  	mv	a3, a0
800042ac: 93 d5 f6 03  	srli	a1, a3, 63
800042b0: 13 56 18 00  	srli	a2, a6, 1
800042b4: 13 f5 87 0f  	andi	a0, a5, 248
800042b8: 97 07 00 00  	auipc	a5, 0
800042bc: b3 87 a7 00  	add	a5, a5, a0
800042c0: e7 82 87 87  	jalr	t0, -1928(a5)
800042c4: 93 57 f5 03  	srli	a5, a0, 63
800042c8: 33 76 b6 00  	and	a2, a2, a1
800042cc: 33 c8 07 01  	xor	a6, a5, a6
800042d0: 33 48 c8 00  	xor	a6, a6, a2
800042d4: 13 95 16 00  	slli	a0, a3, 1
800042d8: 13 18 f8 03  	slli	a6, a6, 63
800042dc: 13 55 15 00  	srli	a0, a0, 1
800042e0: 13 57 47 00  	srli	a4, a4, 4
800042e4: 33 65 a8 00  	or	a0, a6, a0
800042e8: 13 77 87 0f  	andi	a4, a4, 248
800042ec: 97 07 00 00  	auipc	a5, 0
800042f0: b3 87 e7 00  	add	a5, a5, a4
800042f4: e7 82 47 94  	jalr	t0, -1724(a5)
800042f8: 67 80 00 00  	ret
800042fc: 93 56 17 01  	srli	a3, a4, 17
80004300: 13 75 83 0f  	andi	a0, t1, 248
80004304: 97 f7 ff ff  	auipc	a5, 1048575
80004308: b3 87 a7 00  	add	a5, a5, a0
8000430c: e7 82 c7 62  	jalr	t0, 1580(a5)
80004310: 9b 07 05 00  	sext.w	a5, a0
80004314: 1b 56 18 40  	sraiw	a2, a6, 1
80004318: 13 f5 86 0f  	andi	a0, a3, 248
8000431c: 93 d6 f7 03  	srli	a3, a5, 63
80004320: 97 f5 ff ff  	auipc	a1, 1048575
80004324: b3 85 a5 00  	add	a1, a1, a0
80004328: e7 82 05 61  	jalr	t0, 1552(a1)
8000432c: 1b 55 f5 01  	srliw	a0, a0, 31
80004330: b3 f6 c6 00  	and	a3, a3, a2
80004334: 33 48 a8 00  	xor	a6, a6, a0
80004338: 33 48 d8 00  	xor	a6, a6, a3
8000433c: 13 95 17 02  	slli	a0, a5, 33
80004340: 1b 18 f8 01  	slliw	a6, a6, 31
80004344: 13 55 15 02  	srli	a0, a0, 33
80004348: 13 57 47 00  	srli	a4, a4, 4
8000434c: 33 65 05 01  	or	a0, a0, a6
80004350: 13 77 87 0f  	andi	a4, a4, 248
80004354: 97 f7 ff ff  	auipc	a5, 1048575
80004358: b3 87 e7 00  	add	a5, a5, a4
8000435c: e7 82 c7 6d  	jalr	t0, 1756(a5)
80004360: 67 80 00 00  	ret
80004364: 6f f0 df a4  	j	0x80003db0 <truly_illegal_insn>

0000000080004368 <emulate_fmin>:
80004368: 13 01 01 fe  	addi	sp, sp, -32
8000436c: 93 57 c7 00  	srli	a5, a4, 12
80004370: 23 38 81 00  	sd	s0, 16(sp)
80004374: 23 3c 11 00  	sd	ra, 24(sp)
80004378: 13 04 07 00  	mv	s0, a4
8000437c: 23 34 91 00  	sd	s1, 8(sp)
80004380: 23 30 21 01  	sd	s2, 0(sp)
80004384: 13 f7 67 00  	andi	a4, a5, 6
80004388: 63 1a 07 12  	bnez	a4, 0x800044bc <emulate_fmin+0x154>
8000438c: 13 57 94 01  	srli	a4, s0, 25
80004390: 13 77 37 00  	andi	a4, a4, 3
80004394: 13 f8 77 00  	andi	a6, a5, 7
80004398: 63 0c 07 08  	beqz	a4, 0x80004430 <emulate_fmin+0xc8>
8000439c: 93 08 10 00  	li	a7, 1
800043a0: 63 1e 17 11  	bne	a4, a7, 0x800044bc <emulate_fmin+0x154>
800043a4: 13 57 14 01  	srli	a4, s0, 17
800043a8: 13 f5 87 0f  	andi	a0, a5, 248
800043ac: 97 f7 ff ff  	auipc	a5, 1048575
800043b0: b3 87 a7 00  	add	a5, a5, a0
800043b4: e7 82 47 78  	jalr	t0, 1924(a5)
800043b8: 93 04 05 00  	mv	s1, a0
800043bc: 13 75 87 0f  	andi	a0, a4, 248
800043c0: 97 f7 ff ff  	auipc	a5, 1048575
800043c4: b3 87 a7 00  	add	a5, a5, a0
800043c8: e7 82 07 77  	jalr	t0, 1904(a5)
800043cc: 13 09 05 00  	mv	s2, a0
800043d0: 63 1a 08 10  	bnez	a6, 0x800044e4 <emulate_fmin+0x17c>
800043d4: 13 85 04 00  	mv	a0, s1
800043d8: 93 05 09 00  	mv	a1, s2
800043dc: ef 10 50 0d  	jal	0x80005cb0 <f64_lt_quiet>
800043e0: 63 10 05 02  	bnez	a0, 0x80004400 <emulate_fmin+0x98>
800043e4: 13 07 f0 7f  	li	a4, 2047
800043e8: 93 47 f9 ff  	not	a5, s2
800043ec: 13 17 47 03  	slli	a4, a4, 52
800043f0: b3 f7 e7 00  	and	a5, a5, a4
800043f4: 63 90 07 10  	bnez	a5, 0x800044f4 <emulate_fmin+0x18c>
800043f8: 93 17 c9 00  	slli	a5, s2, 12
800043fc: 63 8c 07 0e  	beqz	a5, 0x800044f4 <emulate_fmin+0x18c>
80004400: 13 54 44 00  	srli	s0, s0, 4
80004404: 13 85 04 00  	mv	a0, s1
80004408: 13 74 84 0f  	andi	s0, s0, 248
8000440c: 97 07 00 00  	auipc	a5, 0
80004410: b3 87 87 00  	add	a5, a5, s0
80004414: e7 82 47 82  	jalr	t0, -2012(a5)
80004418: 83 30 81 01  	ld	ra, 24(sp)
8000441c: 03 34 01 01  	ld	s0, 16(sp)
80004420: 83 34 81 00  	ld	s1, 8(sp)
80004424: 03 39 01 00  	ld	s2, 0(sp)
80004428: 13 01 01 02  	addi	sp, sp, 32
8000442c: 67 80 00 00  	ret
80004430: 9b 88 07 00  	sext.w	a7, a5
80004434: 93 57 14 01  	srli	a5, s0, 17
80004438: 13 f5 88 0f  	andi	a0, a7, 248
8000443c: 17 f7 ff ff  	auipc	a4, 1048575
80004440: 33 07 a7 00  	add	a4, a4, a0
80004444: e7 02 47 4f  	jalr	t0, 1268(a4)
80004448: 9b 04 05 00  	sext.w	s1, a0
8000444c: 13 f5 87 0f  	andi	a0, a5, 248
80004450: 97 f7 ff ff  	auipc	a5, 1048575
80004454: b3 87 a7 00  	add	a5, a5, a0
80004458: e7 82 07 4e  	jalr	t0, 1248(a5)
8000445c: 1b 09 05 00  	sext.w	s2, a0
80004460: 63 1c 08 06  	bnez	a6, 0x800044d8 <emulate_fmin+0x170>
80004464: 13 85 04 00  	mv	a0, s1
80004468: 93 05 09 00  	mv	a1, s2
8000446c: ef 00 d0 72  	jal	0x80005398 <f32_lt_quiet>
80004470: 63 1e 05 00  	bnez	a0, 0x8000448c <emulate_fmin+0x124>
80004474: 93 47 f9 ff  	not	a5, s2
80004478: 37 07 80 7f  	lui	a4, 522240
8000447c: b3 f7 e7 00  	and	a5, a5, a4
80004480: 63 96 07 06  	bnez	a5, 0x800044ec <emulate_fmin+0x184>
80004484: 93 17 99 02  	slli	a5, s2, 41
80004488: 63 82 07 06  	beqz	a5, 0x800044ec <emulate_fmin+0x184>
8000448c: 13 54 44 00  	srli	s0, s0, 4
80004490: 13 85 04 00  	mv	a0, s1
80004494: 13 74 84 0f  	andi	s0, s0, 248
80004498: 97 f7 ff ff  	auipc	a5, 1048575
8000449c: b3 87 87 00  	add	a5, a5, s0
800044a0: e7 82 87 59  	jalr	t0, 1432(a5)
800044a4: 83 30 81 01  	ld	ra, 24(sp)
800044a8: 03 34 01 01  	ld	s0, 16(sp)
800044ac: 83 34 81 00  	ld	s1, 8(sp)
800044b0: 03 39 01 00  	ld	s2, 0(sp)
800044b4: 13 01 01 02  	addi	sp, sp, 32
800044b8: 67 80 00 00  	ret
800044bc: 13 07 04 00  	mv	a4, s0
800044c0: 03 34 01 01  	ld	s0, 16(sp)
800044c4: 83 30 81 01  	ld	ra, 24(sp)
800044c8: 83 34 81 00  	ld	s1, 8(sp)
800044cc: 03 39 01 00  	ld	s2, 0(sp)
800044d0: 13 01 01 02  	addi	sp, sp, 32
800044d4: 6f f0 df 8d  	j	0x80003db0 <truly_illegal_insn>
800044d8: 13 05 09 00  	mv	a0, s2
800044dc: 93 85 04 00  	mv	a1, s1
800044e0: 6f f0 df f8  	j	0x8000446c <emulate_fmin+0x104>
800044e4: 93 85 04 00  	mv	a1, s1
800044e8: 6f f0 5f ef  	j	0x800043dc <emulate_fmin+0x74>
800044ec: 93 04 09 00  	mv	s1, s2
800044f0: 6f f0 df f9  	j	0x8000448c <emulate_fmin+0x124>
800044f4: 93 04 09 00  	mv	s1, s2
800044f8: 13 54 44 00  	srli	s0, s0, 4
800044fc: 13 85 04 00  	mv	a0, s1
80004500: 13 74 84 0f  	andi	s0, s0, 248
80004504: 97 f7 ff ff  	auipc	a5, 1048575
80004508: b3 87 87 00  	add	a5, a5, s0
8000450c: e7 82 c7 72  	jalr	t0, 1836(a5)
80004510: 6f f0 9f f0  	j	0x80004418 <emulate_fmin+0xb0>

0000000080004514 <emulate_fcvt_ff>:
80004514: 13 01 01 ff  	addi	sp, sp, -16
80004518: 93 57 97 01  	srli	a5, a4, 25
8000451c: 23 30 81 00  	sd	s0, 0(sp)
80004520: 23 34 11 00  	sd	ra, 8(sp)
80004524: 13 04 07 00  	mv	s0, a4
80004528: 93 f7 37 00  	andi	a5, a5, 3
8000452c: 13 57 47 01  	srli	a4, a4, 20
80004530: 13 77 f7 01  	andi	a4, a4, 31
80004534: 63 90 07 02  	bnez	a5, 0x80004554 <emulate_fcvt_ff+0x40>
80004538: 93 07 10 00  	li	a5, 1
8000453c: 63 00 f7 06  	beq	a4, a5, 0x8000459c <emulate_fcvt_ff+0x88>
80004540: 13 07 04 00  	mv	a4, s0
80004544: 03 34 01 00  	ld	s0, 0(sp)
80004548: 83 30 81 00  	ld	ra, 8(sp)
8000454c: 13 01 01 01  	addi	sp, sp, 16
80004550: 6f f0 1f 86  	j	0x80003db0 <truly_illegal_insn>
80004554: 13 08 10 00  	li	a6, 1
80004558: e3 94 07 ff  	bne	a5, a6, 0x80004540 <emulate_fcvt_ff+0x2c>
8000455c: e3 12 07 fe  	bnez	a4, 0x80004540 <emulate_fcvt_ff+0x2c>
80004560: 13 55 c4 00  	srli	a0, s0, 12
80004564: 13 54 44 00  	srli	s0, s0, 4
80004568: 13 75 85 0f  	andi	a0, a0, 248
8000456c: 13 74 84 0f  	andi	s0, s0, 248
80004570: 97 f7 ff ff  	auipc	a5, 1048575
80004574: b3 87 a7 00  	add	a5, a5, a0
80004578: e7 82 07 3c  	jalr	t0, 960(a5)
8000457c: ef 10 c0 1d  	jal	0x80005758 <f32_to_f64>
80004580: 97 f7 ff ff  	auipc	a5, 1048575
80004584: b3 87 87 00  	add	a5, a5, s0
80004588: e7 82 07 6b  	jalr	t0, 1712(a5)
8000458c: 83 30 81 00  	ld	ra, 8(sp)
80004590: 03 34 01 00  	ld	s0, 0(sp)
80004594: 13 01 01 01  	addi	sp, sp, 16
80004598: 67 80 00 00  	ret
8000459c: 13 55 c4 00  	srli	a0, s0, 12
800045a0: 13 54 44 00  	srli	s0, s0, 4
800045a4: 13 75 85 0f  	andi	a0, a0, 248
800045a8: 13 74 84 0f  	andi	s0, s0, 248
800045ac: 97 f7 ff ff  	auipc	a5, 1048575
800045b0: b3 87 a7 00  	add	a5, a5, a0
800045b4: e7 82 47 58  	jalr	t0, 1412(a5)
800045b8: ef 10 10 33  	jal	0x800060e8 <f64_to_f32>
800045bc: 97 f7 ff ff  	auipc	a5, 1048575
800045c0: b3 87 87 00  	add	a5, a5, s0
800045c4: e7 82 47 47  	jalr	t0, 1140(a5)
800045c8: 83 30 81 00  	ld	ra, 8(sp)
800045cc: 03 34 01 00  	ld	s0, 0(sp)
800045d0: 13 01 01 01  	addi	sp, sp, 16
800045d4: 67 80 00 00  	ret

00000000800045d8 <emulate_fcvt_fi>:
800045d8: 93 17 57 02  	slli	a5, a4, 37
800045dc: 63 c8 07 0e  	bltz	a5, 0x800046cc <emulate_fcvt_fi+0xf4>
800045e0: 13 01 01 ff  	addi	sp, sp, -16
800045e4: 23 30 81 00  	sd	s0, 0(sp)
800045e8: 13 04 07 00  	mv	s0, a4
800045ec: 13 57 c7 00  	srli	a4, a4, 12
800045f0: 13 77 87 0f  	andi	a4, a4, 248
800045f4: 93 57 44 01  	srli	a5, s0, 20
800045f8: 13 8e 06 00  	mv	t3, a3
800045fc: 33 07 e5 00  	add	a4, a0, a4
80004600: 23 34 11 00  	sd	ra, 8(sp)
80004604: 93 f7 f7 01  	andi	a5, a5, 31
80004608: 93 06 20 00  	li	a3, 2
8000460c: 13 08 05 00  	mv	a6, a0
80004610: 03 35 07 00  	ld	a0, 0(a4)
80004614: 63 82 d7 0e  	beq	a5, a3, 0x800046f8 <emulate_fcvt_fi+0x120>
80004618: 93 88 05 00  	mv	a7, a1
8000461c: 13 03 06 00  	mv	t1, a2
80004620: 63 e6 f6 04  	bltu	a3, a5, 0x8000466c <emulate_fcvt_fi+0x94>
80004624: 63 86 07 0a  	beqz	a5, 0x800046d0 <emulate_fcvt_fi+0xf8>
80004628: 13 07 10 00  	li	a4, 1
8000462c: 63 90 e7 08  	bne	a5, a4, 0x800046ac <emulate_fcvt_fi+0xd4>
80004630: 13 15 05 02  	slli	a0, a0, 32
80004634: 13 55 05 02  	srli	a0, a0, 32
80004638: ef 30 40 7b  	jal	0x80007dec <ui64_to_f64>
8000463c: 93 57 94 01  	srli	a5, s0, 25
80004640: 93 f7 37 00  	andi	a5, a5, 3
80004644: 13 54 44 00  	srli	s0, s0, 4
80004648: 13 74 84 0f  	andi	s0, s0, 248
8000464c: 63 80 07 04  	beqz	a5, 0x8000468c <emulate_fcvt_fi+0xb4>
80004650: 97 f7 ff ff  	auipc	a5, 1048575
80004654: b3 87 87 00  	add	a5, a5, s0
80004658: e7 82 07 5e  	jalr	t0, 1504(a5)
8000465c: 83 30 81 00  	ld	ra, 8(sp)
80004660: 03 34 01 00  	ld	s0, 0(sp)
80004664: 13 01 01 01  	addi	sp, sp, 16
80004668: 67 80 00 00  	ret
8000466c: 13 07 30 00  	li	a4, 3
80004670: 63 9e e7 02  	bne	a5, a4, 0x800046ac <emulate_fcvt_fi+0xd4>
80004674: ef 30 80 77  	jal	0x80007dec <ui64_to_f64>
80004678: 93 57 94 01  	srli	a5, s0, 25
8000467c: 93 f7 37 00  	andi	a5, a5, 3
80004680: 13 54 44 00  	srli	s0, s0, 4
80004684: 13 74 84 0f  	andi	s0, s0, 248
80004688: e3 94 07 fc  	bnez	a5, 0x80004650 <emulate_fcvt_fi+0x78>
8000468c: ef 10 d0 25  	jal	0x800060e8 <f64_to_f32>
80004690: 97 f7 ff ff  	auipc	a5, 1048575
80004694: b3 87 87 00  	add	a5, a5, s0
80004698: e7 82 07 3a  	jalr	t0, 928(a5)
8000469c: 83 30 81 00  	ld	ra, 8(sp)
800046a0: 03 34 01 00  	ld	s0, 0(sp)
800046a4: 13 01 01 01  	addi	sp, sp, 16
800046a8: 67 80 00 00  	ret
800046ac: 13 07 04 00  	mv	a4, s0
800046b0: 03 34 01 00  	ld	s0, 0(sp)
800046b4: 83 30 81 00  	ld	ra, 8(sp)
800046b8: 93 06 0e 00  	mv	a3, t3
800046bc: 13 06 03 00  	mv	a2, t1
800046c0: 93 85 08 00  	mv	a1, a7
800046c4: 13 05 08 00  	mv	a0, a6
800046c8: 13 01 01 01  	addi	sp, sp, 16
800046cc: 6f f0 4f ee  	j	0x80003db0 <truly_illegal_insn>
800046d0: 93 17 05 02  	slli	a5, a0, 32
800046d4: e3 de 07 f4  	bgez	a5, 0x80004630 <emulate_fcvt_fi+0x58>
800046d8: 3b 05 a0 40  	negw	a0, a0
800046dc: 13 15 05 02  	slli	a0, a0, 32
800046e0: 13 55 05 02  	srli	a0, a0, 32
800046e4: ef 30 80 70  	jal	0x80007dec <ui64_to_f64>
800046e8: 93 07 f0 ff  	li	a5, -1
800046ec: 93 97 f7 03  	slli	a5, a5, 63
800046f0: 33 45 f5 00  	xor	a0, a0, a5
800046f4: 6f f0 9f f4  	j	0x8000463c <emulate_fcvt_fi+0x64>
800046f8: e3 5e 05 f6  	bgez	a0, 0x80004674 <emulate_fcvt_fi+0x9c>
800046fc: 33 05 a0 40  	neg	a0, a0
80004700: 6f f0 5f fe  	j	0x800046e4 <emulate_fcvt_fi+0x10c>

0000000080004704 <emulate_fcvt_if>:
80004704: 13 01 01 fd  	addi	sp, sp, -48
80004708: 93 57 47 01  	srli	a5, a4, 20
8000470c: 23 30 81 02  	sd	s0, 32(sp)
80004710: 23 38 21 01  	sd	s2, 16(sp)
80004714: 13 04 07 00  	mv	s0, a4
80004718: 23 34 11 02  	sd	ra, 40(sp)
8000471c: 23 3c 91 00  	sd	s1, 24(sp)
80004720: 23 34 31 01  	sd	s3, 8(sp)
80004724: 23 30 41 01  	sd	s4, 0(sp)
80004728: 13 f7 c7 01  	andi	a4, a5, 28
8000472c: 13 09 05 00  	mv	s2, a0
80004730: 63 14 07 0a  	bnez	a4, 0x800047d8 <emulate_fcvt_if+0xd4>
80004734: 9b 84 07 00  	sext.w	s1, a5
80004738: 93 57 94 01  	srli	a5, s0, 25
8000473c: 93 f7 37 00  	andi	a5, a5, 3
80004740: 63 80 07 0c  	beqz	a5, 0x80004800 <emulate_fcvt_if+0xfc>
80004744: 13 07 10 00  	li	a4, 1
80004748: 63 98 e7 08  	bne	a5, a4, 0x800047d8 <emulate_fcvt_if+0xd4>
8000474c: 13 55 c4 00  	srli	a0, s0, 12
80004750: 13 75 85 0f  	andi	a0, a0, 248
80004754: 93 f4 f4 01  	andi	s1, s1, 31
80004758: 93 75 f2 0f  	andi	a1, tp, 255
8000475c: 97 f7 ff ff  	auipc	a5, 1048575
80004760: b3 87 a7 00  	add	a5, a5, a0
80004764: e7 82 47 3d  	jalr	t0, 980(a5)
80004768: 63 4e 05 0a  	bltz	a0, 0x80004824 <emulate_fcvt_if+0x120>
8000476c: 13 06 10 00  	li	a2, 1
80004770: ef 10 d0 22  	jal	0x8000619c <f64_to_ui64>
80004774: 93 07 20 00  	li	a5, 2
80004778: 63 8a f4 10  	beq	s1, a5, 0x8000488c <emulate_fcvt_if+0x188>
8000477c: 13 07 05 00  	mv	a4, a0
80004780: 63 c4 97 02  	blt	a5, s1, 0x800047a8 <emulate_fcvt_if+0xa4>
80004784: 63 8e 04 10  	beqz	s1, 0x800048a0 <emulate_fcvt_if+0x19c>
80004788: 13 07 f0 ff  	li	a4, -1
8000478c: 13 57 07 02  	srli	a4, a4, 32
80004790: 93 07 07 00  	mv	a5, a4
80004794: 93 86 07 00  	mv	a3, a5
80004798: 33 77 e5 00  	and	a4, a0, a4
8000479c: 63 f6 a6 00  	bgeu	a3, a0, 0x800047a8 <emulate_fcvt_if+0xa4>
800047a0: 73 67 18 00  	csrrsi	a4, fflags, 16
800047a4: 13 87 07 00  	mv	a4, a5
800047a8: 13 54 44 00  	srli	s0, s0, 4
800047ac: 13 74 84 0f  	andi	s0, s0, 248
800047b0: 33 05 89 00  	add	a0, s2, s0
800047b4: 83 30 81 02  	ld	ra, 40(sp)
800047b8: 03 34 01 02  	ld	s0, 32(sp)
800047bc: 23 30 e5 00  	sd	a4, 0(a0)
800047c0: 83 34 81 01  	ld	s1, 24(sp)
800047c4: 03 39 01 01  	ld	s2, 16(sp)
800047c8: 83 39 81 00  	ld	s3, 8(sp)
800047cc: 03 3a 01 00  	ld	s4, 0(sp)
800047d0: 13 01 01 03  	addi	sp, sp, 48
800047d4: 67 80 00 00  	ret
800047d8: 13 07 04 00  	mv	a4, s0
800047dc: 03 34 01 02  	ld	s0, 32(sp)
800047e0: 83 30 81 02  	ld	ra, 40(sp)
800047e4: 83 34 81 01  	ld	s1, 24(sp)
800047e8: 83 39 81 00  	ld	s3, 8(sp)
800047ec: 03 3a 01 00  	ld	s4, 0(sp)
800047f0: 13 05 09 00  	mv	a0, s2
800047f4: 03 39 01 01  	ld	s2, 16(sp)
800047f8: 13 01 01 03  	addi	sp, sp, 48
800047fc: 6f f0 4f db  	j	0x80003db0 <truly_illegal_insn>
80004800: 13 55 c4 00  	srli	a0, s0, 12
80004804: 13 75 85 0f  	andi	a0, a0, 248
80004808: 97 f7 ff ff  	auipc	a5, 1048575
8000480c: b3 87 a7 00  	add	a5, a5, a0
80004810: e7 82 87 12  	jalr	t0, 296(a5)
80004814: ef 00 50 74  	jal	0x80005758 <f32_to_f64>
80004818: 93 f4 f4 01  	andi	s1, s1, 31
8000481c: 93 75 f2 0f  	andi	a1, tp, 255
80004820: e3 56 05 f4  	bgez	a0, 0x8000476c <emulate_fcvt_if+0x68>
80004824: 13 0a f0 ff  	li	s4, -1
80004828: 93 19 fa 03  	slli	s3, s4, 63
8000482c: 13 06 10 00  	li	a2, 1
80004830: 33 45 35 01  	xor	a0, a0, s3
80004834: ef 10 90 16  	jal	0x8000619c <f64_to_ui64>
80004838: 13 07 20 00  	li	a4, 2
8000483c: 63 80 e4 04  	beq	s1, a4, 0x8000487c <emulate_fcvt_if+0x178>
80004840: 63 46 97 02  	blt	a4, s1, 0x8000486c <emulate_fcvt_if+0x168>
80004844: 63 8a 04 00  	beqz	s1, 0x80004858 <emulate_fcvt_if+0x154>
80004848: 93 57 0a 02  	srli	a5, s4, 32
8000484c: 93 06 00 00  	li	a3, 0
80004850: 13 07 00 00  	li	a4, 0
80004854: 6f f0 9f f4  	j	0x8000479c <emulate_fcvt_if+0x98>
80004858: 93 07 10 00  	li	a5, 1
8000485c: 93 97 f7 01  	slli	a5, a5, 31
80004860: 3b 07 a0 40  	negw	a4, a0
80004864: 93 86 07 00  	mv	a3, a5
80004868: 6f f0 5f f3  	j	0x8000479c <emulate_fcvt_if+0x98>
8000486c: 93 07 f0 ff  	li	a5, -1
80004870: 93 06 00 00  	li	a3, 0
80004874: 13 07 00 00  	li	a4, 0
80004878: 6f f0 5f f2  	j	0x8000479c <emulate_fcvt_if+0x98>
8000487c: 93 87 09 00  	mv	a5, s3
80004880: 33 07 a0 40  	neg	a4, a0
80004884: 93 86 09 00  	mv	a3, s3
80004888: 6f f0 5f f1  	j	0x8000479c <emulate_fcvt_if+0x98>
8000488c: 93 07 f0 ff  	li	a5, -1
80004890: 93 d7 17 00  	srli	a5, a5, 1
80004894: 13 07 05 00  	mv	a4, a0
80004898: 93 86 07 00  	mv	a3, a5
8000489c: 6f f0 1f f0  	j	0x8000479c <emulate_fcvt_if+0x98>
800048a0: b7 07 00 80  	lui	a5, 524288
800048a4: 93 c7 f7 ff  	not	a5, a5
800048a8: 1b 07 05 00  	sext.w	a4, a0
800048ac: 93 86 07 00  	mv	a3, a5
800048b0: 6f f0 df ee  	j	0x8000479c <emulate_fcvt_if+0x98>

00000000800048b4 <emulate_fcmp>:
800048b4: 13 01 01 fd  	addi	sp, sp, -48
800048b8: 23 30 81 02  	sd	s0, 32(sp)
800048bc: 13 04 07 00  	mv	s0, a4
800048c0: 13 57 c7 00  	srli	a4, a4, 12
800048c4: 23 3c 91 00  	sd	s1, 24(sp)
800048c8: 23 38 21 01  	sd	s2, 16(sp)
800048cc: 23 34 11 02  	sd	ra, 40(sp)
800048d0: 23 34 31 01  	sd	s3, 8(sp)
800048d4: 23 30 41 01  	sd	s4, 0(sp)
800048d8: 93 74 77 00  	andi	s1, a4, 7
800048dc: 93 07 20 00  	li	a5, 2
800048e0: 13 09 05 00  	mv	s2, a0
800048e4: 63 cc 97 00  	blt	a5, s1, 0x800048fc <emulate_fcmp+0x48>
800048e8: 93 57 94 01  	srli	a5, s0, 25
800048ec: 93 f7 37 00  	andi	a5, a5, 3
800048f0: 63 8a 07 02  	beqz	a5, 0x80004924 <emulate_fcmp+0x70>
800048f4: 13 05 10 00  	li	a0, 1
800048f8: 63 82 a7 0c  	beq	a5, a0, 0x800049bc <emulate_fcmp+0x108>
800048fc: 13 07 04 00  	mv	a4, s0
80004900: 03 34 01 02  	ld	s0, 32(sp)
80004904: 83 30 81 02  	ld	ra, 40(sp)
80004908: 83 34 81 01  	ld	s1, 24(sp)
8000490c: 83 39 81 00  	ld	s3, 8(sp)
80004910: 03 3a 01 00  	ld	s4, 0(sp)
80004914: 13 05 09 00  	mv	a0, s2
80004918: 03 39 01 01  	ld	s2, 16(sp)
8000491c: 13 01 01 03  	addi	sp, sp, 48
80004920: 6f f0 0f c9  	j	0x80003db0 <truly_illegal_insn>
80004924: 1b 05 07 00  	sext.w	a0, a4
80004928: 93 57 14 01  	srli	a5, s0, 17
8000492c: 13 07 10 00  	li	a4, 1
80004930: 13 75 85 0f  	andi	a0, a0, 248
80004934: 97 f6 ff ff  	auipc	a3, 1048575
80004938: b3 86 a6 00  	add	a3, a3, a0
8000493c: e7 82 c6 ff  	jalr	t0, -4(a3)
80004940: 9b 09 05 00  	sext.w	s3, a0
80004944: 13 f5 87 0f  	andi	a0, a5, 248
80004948: 97 f7 ff ff  	auipc	a5, 1048575
8000494c: b3 87 a7 00  	add	a5, a5, a0
80004950: e7 82 87 fe  	jalr	t0, -24(a5)
80004954: 1b 0a 05 00  	sext.w	s4, a0
80004958: 63 92 e4 04  	bne	s1, a4, 0x8000499c <emulate_fcmp+0xe8>
8000495c: 93 05 0a 00  	mv	a1, s4
80004960: 13 85 09 00  	mv	a0, s3
80004964: ef 00 50 1a  	jal	0x80005308 <f32_lt>
80004968: 93 07 05 00  	mv	a5, a0
8000496c: 13 54 44 00  	srli	s0, s0, 4
80004970: 13 74 84 0f  	andi	s0, s0, 248
80004974: 33 04 89 00  	add	s0, s2, s0
80004978: 83 30 81 02  	ld	ra, 40(sp)
8000497c: 23 30 f4 00  	sd	a5, 0(s0)
80004980: 03 34 01 02  	ld	s0, 32(sp)
80004984: 83 34 81 01  	ld	s1, 24(sp)
80004988: 03 39 01 01  	ld	s2, 16(sp)
8000498c: 83 39 81 00  	ld	s3, 8(sp)
80004990: 03 3a 01 00  	ld	s4, 0(sp)
80004994: 13 01 01 03  	addi	sp, sp, 48
80004998: 67 80 00 00  	ret
8000499c: 93 05 0a 00  	mv	a1, s4
800049a0: 13 85 09 00  	mv	a0, s3
800049a4: ef 00 50 0c  	jal	0x80005268 <f32_eq>
800049a8: 93 07 05 00  	mv	a5, a0
800049ac: e3 90 04 fc  	bnez	s1, 0x8000496c <emulate_fcmp+0xb8>
800049b0: e3 06 05 fa  	beqz	a0, 0x8000495c <emulate_fcmp+0xa8>
800049b4: 93 07 10 00  	li	a5, 1
800049b8: 6f f0 5f fb  	j	0x8000496c <emulate_fcmp+0xb8>
800049bc: 93 56 14 01  	srli	a3, s0, 17
800049c0: 13 75 87 0f  	andi	a0, a4, 248
800049c4: 17 f7 ff ff  	auipc	a4, 1048575
800049c8: 33 07 a7 00  	add	a4, a4, a0
800049cc: e7 02 c7 16  	jalr	t0, 364(a4)
800049d0: 93 09 05 00  	mv	s3, a0
800049d4: 13 f5 86 0f  	andi	a0, a3, 248
800049d8: 17 f7 ff ff  	auipc	a4, 1048575
800049dc: 33 07 a7 00  	add	a4, a4, a0
800049e0: e7 02 87 15  	jalr	t0, 344(a4)
800049e4: 13 0a 05 00  	mv	s4, a0
800049e8: 63 9c f4 00  	bne	s1, a5, 0x80004a00 <emulate_fcmp+0x14c>
800049ec: 93 05 0a 00  	mv	a1, s4
800049f0: 13 85 09 00  	mv	a0, s3
800049f4: ef 10 80 23  	jal	0x80005c2c <f64_lt>
800049f8: 93 07 05 00  	mv	a5, a0
800049fc: 6f f0 1f f7  	j	0x8000496c <emulate_fcmp+0xb8>
80004a00: 93 05 05 00  	mv	a1, a0
80004a04: 13 85 09 00  	mv	a0, s3
80004a08: ef 10 c0 17  	jal	0x80005b84 <f64_eq>
80004a0c: 93 07 05 00  	mv	a5, a0
80004a10: e3 9e 04 f4  	bnez	s1, 0x8000496c <emulate_fcmp+0xb8>
80004a14: e3 0c 05 fc  	beqz	a0, 0x800049ec <emulate_fcmp+0x138>
80004a18: 93 07 10 00  	li	a5, 1
80004a1c: 6f f0 1f f5  	j	0x8000496c <emulate_fcmp+0xb8>

0000000080004a20 <emulate_fmv_if>:
80004a20: 13 01 01 fe  	addi	sp, sp, -32
80004a24: 93 57 47 01  	srli	a5, a4, 20
80004a28: 23 38 81 00  	sd	s0, 16(sp)
80004a2c: 23 34 91 00  	sd	s1, 8(sp)
80004a30: 23 3c 11 00  	sd	ra, 24(sp)
80004a34: 93 f7 f7 01  	andi	a5, a5, 31
80004a38: 13 04 07 00  	mv	s0, a4
80004a3c: 93 04 05 00  	mv	s1, a0
80004a40: 13 88 05 00  	mv	a6, a1
80004a44: 93 08 06 00  	mv	a7, a2
80004a48: 13 83 06 00  	mv	t1, a3
80004a4c: 63 94 07 0a  	bnez	a5, 0x80004af4 <emulate_fmv_if+0xd4>
80004a50: 93 57 97 01  	srli	a5, a4, 25
80004a54: 93 f7 37 00  	andi	a5, a5, 3
80004a58: 63 92 07 04  	bnez	a5, 0x80004a9c <emulate_fmv_if+0x7c>
80004a5c: 13 55 c7 00  	srli	a0, a4, 12
80004a60: 93 77 75 00  	andi	a5, a0, 7
80004a64: 13 75 85 0f  	andi	a0, a0, 248
80004a68: 17 f8 ff ff  	auipc	a6, 1048575
80004a6c: 33 08 a8 00  	add	a6, a6, a0
80004a70: e7 02 88 ec  	jalr	t0, -312(a6)
80004a74: 1b 08 05 00  	sext.w	a6, a0
80004a78: 63 8c 07 04  	beqz	a5, 0x80004ad0 <emulate_fmv_if+0xb0>
80004a7c: 13 05 10 00  	li	a0, 1
80004a80: 63 8e a7 08  	beq	a5, a0, 0x80004b1c <emulate_fmv_if+0xfc>
80004a84: 03 34 01 01  	ld	s0, 16(sp)
80004a88: 83 30 81 01  	ld	ra, 24(sp)
80004a8c: 13 85 04 00  	mv	a0, s1
80004a90: 83 34 81 00  	ld	s1, 8(sp)
80004a94: 13 01 01 02  	addi	sp, sp, 32
80004a98: 6f f0 8f b1  	j	0x80003db0 <truly_illegal_insn>
80004a9c: 13 05 10 00  	li	a0, 1
80004aa0: 63 9a a7 04  	bne	a5, a0, 0x80004af4 <emulate_fmv_if+0xd4>
80004aa4: 93 58 c7 00  	srli	a7, a4, 12
80004aa8: 13 f5 88 0f  	andi	a0, a7, 248
80004aac: 93 f8 78 00  	andi	a7, a7, 7
80004ab0: 17 f8 ff ff  	auipc	a6, 1048575
80004ab4: 33 08 a8 00  	add	a6, a6, a0
80004ab8: e7 02 08 08  	jalr	t0, 128(a6)
80004abc: 13 08 05 00  	mv	a6, a0
80004ac0: 63 88 08 00  	beqz	a7, 0x80004ad0 <emulate_fmv_if+0xb0>
80004ac4: e3 90 f8 fc  	bne	a7, a5, 0x80004a84 <emulate_fmv_if+0x64>
80004ac8: ef 10 40 7e  	jal	0x800062ac <f64_classify>
80004acc: 13 08 05 00  	mv	a6, a0
80004ad0: 13 54 44 00  	srli	s0, s0, 4
80004ad4: 13 74 84 0f  	andi	s0, s0, 248
80004ad8: 33 84 84 00  	add	s0, s1, s0
80004adc: 83 30 81 01  	ld	ra, 24(sp)
80004ae0: 23 30 04 01  	sd	a6, 0(s0)
80004ae4: 03 34 01 01  	ld	s0, 16(sp)
80004ae8: 83 34 81 00  	ld	s1, 8(sp)
80004aec: 13 01 01 02  	addi	sp, sp, 32
80004af0: 67 80 00 00  	ret
80004af4: 13 07 04 00  	mv	a4, s0
80004af8: 03 34 01 01  	ld	s0, 16(sp)
80004afc: 83 30 81 01  	ld	ra, 24(sp)
80004b00: 13 85 04 00  	mv	a0, s1
80004b04: 83 34 81 00  	ld	s1, 8(sp)
80004b08: 93 06 03 00  	mv	a3, t1
80004b0c: 13 86 08 00  	mv	a2, a7
80004b10: 93 05 08 00  	mv	a1, a6
80004b14: 13 01 01 02  	addi	sp, sp, 32
80004b18: 6f f0 8f a9  	j	0x80003db0 <truly_illegal_insn>
80004b1c: 13 05 08 00  	mv	a0, a6
80004b20: ef 00 50 4f  	jal	0x80005814 <f32_classify>
80004b24: 13 08 05 00  	mv	a6, a0
80004b28: 6f f0 9f fa  	j	0x80004ad0 <emulate_fmv_if+0xb0>

0000000080004b2c <emulate_fmv_fi>:
80004b2c: 13 53 c7 00  	srli	t1, a4, 12
80004b30: 13 08 f0 00  	li	a6, 15
80004b34: 13 73 83 0f  	andi	t1, t1, 248
80004b38: 97 68 00 00  	auipc	a7, 6
80004b3c: 83 b8 88 54  	ld	a7, 1352(a7)
80004b40: 13 18 c8 01  	slli	a6, a6, 28
80004b44: 33 03 65 00  	add	t1, a0, t1
80004b48: b3 78 17 01  	and	a7, a4, a7
80004b4c: 13 08 38 05  	addi	a6, a6, 83
80004b50: 03 33 03 00  	ld	t1, 0(t1)
80004b54: 63 8a 08 03  	beq	a7, a6, 0x80004b88 <emulate_fmv_fi+0x5c>
80004b58: 13 08 90 07  	li	a6, 121
80004b5c: 13 18 98 01  	slli	a6, a6, 25
80004b60: 13 08 38 05  	addi	a6, a6, 83
80004b64: 63 90 08 03  	bne	a7, a6, 0x80004b84 <emulate_fmv_fi+0x58>
80004b68: 93 57 47 00  	srli	a5, a4, 4
80004b6c: 13 05 03 00  	mv	a0, t1
80004b70: 93 f7 87 0f  	andi	a5, a5, 248
80004b74: 17 f7 ff ff  	auipc	a4, 1048575
80004b78: 33 07 f7 00  	add	a4, a4, a5
80004b7c: e7 02 c7 0b  	jalr	t0, 188(a4)
80004b80: 67 80 00 00  	ret
80004b84: 6f f0 cf a2  	j	0x80003db0 <truly_illegal_insn>
80004b88: 93 57 47 00  	srli	a5, a4, 4
80004b8c: 13 05 03 00  	mv	a0, t1
80004b90: 93 f7 87 0f  	andi	a5, a5, 248
80004b94: 17 f7 ff ff  	auipc	a4, 1048575
80004b98: 33 07 f7 00  	add	a4, a4, a5
80004b9c: e7 02 c7 e9  	jalr	t0, -356(a4)
80004ba0: 67 80 00 00  	ret

0000000080004ba4 <emulate_fmadd>:
80004ba4: 13 01 01 ff  	addi	sp, sp, -16
80004ba8: b7 67 00 00  	lui	a5, 6
80004bac: 23 30 81 00  	sd	s0, 0(sp)
80004bb0: 23 34 11 00  	sd	ra, 8(sp)
80004bb4: b3 f7 f6 00  	and	a5, a3, a5
80004bb8: 13 04 07 00  	mv	s0, a4
80004bbc: 63 82 07 18  	beqz	a5, 0x80004d40 <emulate_fmadd+0x19c>
80004bc0: 93 57 37 00  	srli	a5, a4, 3
80004bc4: 13 57 27 00  	srli	a4, a4, 2
80004bc8: 93 f7 17 00  	andi	a5, a5, 1
80004bcc: 13 78 17 00  	andi	a6, a4, 1
80004bd0: 73 23 20 00  	csrr	t1, frm
80004bd4: 37 77 00 00  	lui	a4, 7
80004bd8: b3 78 e4 00  	and	a7, s0, a4
80004bdc: 13 02 03 00  	mv	tp, t1
80004be0: 63 9a e8 16  	bne	a7, a4, 0x80004d54 <emulate_fmadd+0x1b0>
80004be4: 13 57 94 01  	srli	a4, s0, 25
80004be8: 13 77 37 00  	andi	a4, a4, 3
80004bec: 63 1a 07 0a  	bnez	a4, 0x80004ca0 <emulate_fmadd+0xfc>
80004bf0: 13 55 c4 00  	srli	a0, s0, 12
80004bf4: 13 75 85 0f  	andi	a0, a0, 248
80004bf8: 17 f7 ff ff  	auipc	a4, 1048575
80004bfc: 33 07 a7 00  	add	a4, a4, a0
80004c00: e7 02 87 d3  	jalr	t0, -712(a4)
80004c04: 1b 07 05 00  	sext.w	a4, a0
80004c08: 63 88 07 00  	beqz	a5, 0x80004c18 <emulate_fmadd+0x74>
80004c0c: b7 07 00 80  	lui	a5, 524288
80004c10: 33 47 f7 00  	xor	a4, a4, a5
80004c14: 1b 07 07 00  	sext.w	a4, a4
80004c18: 93 57 84 01  	srli	a5, s0, 24
80004c1c: 13 55 14 01  	srli	a0, s0, 17
80004c20: 13 75 85 0f  	andi	a0, a0, 248
80004c24: 1b 07 07 00  	sext.w	a4, a4
80004c28: 97 f6 ff ff  	auipc	a3, 1048575
80004c2c: b3 86 a6 00  	add	a3, a3, a0
80004c30: e7 82 86 d0  	jalr	t0, -760(a3)
80004c34: 9b 05 05 00  	sext.w	a1, a0
80004c38: 13 f5 87 0f  	andi	a0, a5, 248
80004c3c: 97 f7 ff ff  	auipc	a5, 1048575
80004c40: b3 87 a7 00  	add	a5, a5, a0
80004c44: e7 82 47 cf  	jalr	t0, -780(a5)
80004c48: 1b 06 05 00  	sext.w	a2, a0
80004c4c: 63 08 08 00  	beqz	a6, 0x80004c5c <emulate_fmadd+0xb8>
80004c50: 37 05 00 80  	lui	a0, 524288
80004c54: 33 46 a6 00  	xor	a2, a2, a0
80004c58: 1b 06 06 00  	sext.w	a2, a2
80004c5c: 13 15 07 02  	slli	a0, a4, 32
80004c60: 13 16 06 02  	slli	a2, a2, 32
80004c64: 93 95 05 02  	slli	a1, a1, 32
80004c68: 93 06 00 00  	li	a3, 0
80004c6c: 13 56 06 02  	srli	a2, a2, 32
80004c70: 93 d5 05 02  	srli	a1, a1, 32
80004c74: 13 55 05 02  	srli	a0, a0, 32
80004c78: 13 54 44 00  	srli	s0, s0, 4
80004c7c: ef 10 10 46  	jal	0x800068dc <softfloat_mulAddF32>
80004c80: 13 74 84 0f  	andi	s0, s0, 248
80004c84: 97 f7 ff ff  	auipc	a5, 1048575
80004c88: b3 87 87 00  	add	a5, a5, s0
80004c8c: e7 82 c7 da  	jalr	t0, -596(a5)
80004c90: 83 30 81 00  	ld	ra, 8(sp)
80004c94: 03 34 01 00  	ld	s0, 0(sp)
80004c98: 13 01 01 01  	addi	sp, sp, 16
80004c9c: 67 80 00 00  	ret
80004ca0: 93 08 10 00  	li	a7, 1
80004ca4: 63 1e 17 09  	bne	a4, a7, 0x80004d40 <emulate_fmadd+0x19c>
80004ca8: 13 55 c4 00  	srli	a0, s0, 12
80004cac: 13 75 85 0f  	andi	a0, a0, 248
80004cb0: 17 f7 ff ff  	auipc	a4, 1048575
80004cb4: 33 07 a7 00  	add	a4, a4, a0
80004cb8: e7 02 07 e8  	jalr	t0, -384(a4)
80004cbc: 13 07 05 00  	mv	a4, a0
80004cc0: 63 88 07 00  	beqz	a5, 0x80004cd0 <emulate_fmadd+0x12c>
80004cc4: 93 07 f0 ff  	li	a5, -1
80004cc8: 93 97 f7 03  	slli	a5, a5, 63
80004ccc: 33 47 f5 00  	xor	a4, a0, a5
80004cd0: 93 57 84 01  	srli	a5, s0, 24
80004cd4: 13 55 14 01  	srli	a0, s0, 17
80004cd8: 13 75 85 0f  	andi	a0, a0, 248
80004cdc: 97 f6 ff ff  	auipc	a3, 1048575
80004ce0: b3 86 a6 00  	add	a3, a3, a0
80004ce4: e7 82 46 e5  	jalr	t0, -428(a3)
80004ce8: 93 05 05 00  	mv	a1, a0
80004cec: 13 f5 87 0f  	andi	a0, a5, 248
80004cf0: 97 f7 ff ff  	auipc	a5, 1048575
80004cf4: b3 87 a7 00  	add	a5, a5, a0
80004cf8: e7 82 07 e4  	jalr	t0, -448(a5)
80004cfc: 13 06 05 00  	mv	a2, a0
80004d00: 63 08 08 00  	beqz	a6, 0x80004d10 <emulate_fmadd+0x16c>
80004d04: 93 07 f0 ff  	li	a5, -1
80004d08: 93 97 f7 03  	slli	a5, a5, 63
80004d0c: 33 46 f5 00  	xor	a2, a0, a5
80004d10: 93 06 00 00  	li	a3, 0
80004d14: 13 05 07 00  	mv	a0, a4
80004d18: 13 54 44 00  	srli	s0, s0, 4
80004d1c: ef 10 90 70  	jal	0x80006c24 <softfloat_mulAddF64>
80004d20: 13 74 84 0f  	andi	s0, s0, 248
80004d24: 97 f7 ff ff  	auipc	a5, 1048575
80004d28: b3 87 87 00  	add	a5, a5, s0
80004d2c: e7 82 c7 f0  	jalr	t0, -244(a5)
80004d30: 83 30 81 00  	ld	ra, 8(sp)
80004d34: 03 34 01 00  	ld	s0, 0(sp)
80004d38: 13 01 01 01  	addi	sp, sp, 16
80004d3c: 67 80 00 00  	ret
80004d40: 13 07 04 00  	mv	a4, s0
80004d44: 03 34 01 00  	ld	s0, 0(sp)
80004d48: 83 30 81 00  	ld	ra, 8(sp)
80004d4c: 13 01 01 01  	addi	sp, sp, 16
80004d50: 6f f0 0f 86  	j	0x80003db0 <truly_illegal_insn>
80004d54: 13 57 c4 00  	srli	a4, s0, 12
80004d58: 13 77 77 00  	andi	a4, a4, 7
80004d5c: 93 08 40 00  	li	a7, 4
80004d60: e3 e0 e8 fe  	bltu	a7, a4, 0x80004d40 <emulate_fmadd+0x19c>
80004d64: 13 02 07 00  	mv	tp, a4
80004d68: 6f f0 df e7  	j	0x80004be4 <emulate_fmadd+0x40>

0000000080004d6c <misaligned_load_trap>:
80004d6c: b7 05 0a 00  	lui	a1, 160
80004d70: 93 07 30 00  	li	a5, 3
80004d74: f3 a6 05 30  	csrrs	a3, mstatus, a1
80004d78: 03 67 06 00  	lwu	a4, 0(a2)
80004d7c: 73 90 06 30  	csrw	mstatus, a3
80004d80: 93 75 37 00  	andi	a1, a4, 3
80004d84: 13 01 01 ff  	addi	sp, sp, -16
80004d88: 13 88 06 00  	mv	a6, a3
80004d8c: 13 0e 40 00  	li	t3, 4
80004d90: 63 84 f5 00  	beq	a1, a5, 0x80004d98 <misaligned_load_trap+0x2c>
80004d94: 13 0e 20 00  	li	t3, 2
80004d98: 33 0e c6 01  	add	t3, a2, t3
80004d9c: f3 28 30 34  	csrr	a7, mtval
80004da0: b7 77 00 00  	lui	a5, 7
80004da4: b7 25 00 00  	lui	a1, 2
80004da8: 93 87 f7 07  	addi	a5, a5, 127
80004dac: b3 77 f7 00  	and	a5, a4, a5
80004db0: 13 83 35 00  	addi	t1, a1, 3
80004db4: 63 88 67 0e  	beq	a5, t1, 0x80004ea4 <misaligned_load_trap+0x138>
80004db8: 37 33 00 00  	lui	t1, 3
80004dbc: 93 0e 33 00  	addi	t4, t1, 3
80004dc0: 63 88 d7 05  	beq	a5, t4, 0x80004e10 <misaligned_load_trap+0xa4>
80004dc4: b7 6e 00 00  	lui	t4, 6
80004dc8: 93 8e 3e 00  	addi	t4, t4, 3
80004dcc: 63 82 d7 13  	beq	a5, t4, 0x80004ef0 <misaligned_load_trap+0x184>
80004dd0: 13 03 73 00  	addi	t1, t1, 7
80004dd4: 63 84 67 0e  	beq	a5, t1, 0x80004ebc <misaligned_load_trap+0x150>
80004dd8: 93 85 75 00  	addi	a1, a1, 7
80004ddc: 63 86 b7 12  	beq	a5, a1, 0x80004f08 <misaligned_load_trap+0x19c>
80004de0: b7 15 00 00  	lui	a1, 1
80004de4: 93 85 35 00  	addi	a1, a1, 3
80004de8: 63 8c b7 12  	beq	a5, a1, 0x80004f20 <misaligned_load_trap+0x1b4>
80004dec: b7 55 00 00  	lui	a1, 5
80004df0: 93 85 35 00  	addi	a1, a1, 3
80004df4: 63 92 b7 14  	bne	a5, a1, 0x80004f38 <misaligned_load_trap+0x1cc>
80004df8: 23 34 01 00  	sd	zero, 8(sp)
80004dfc: 13 03 20 00  	li	t1, 2
80004e00: 93 0f 20 00  	li	t6, 2
80004e04: 13 0f 00 00  	li	t5, 0
80004e08: 93 0e 00 00  	li	t4, 0
80004e0c: 6f 00 80 01  	j	0x80004e24 <misaligned_load_trap+0xb8>
80004e10: 23 34 01 00  	sd	zero, 8(sp)
80004e14: 13 03 80 00  	li	t1, 8
80004e18: 93 0f 80 00  	li	t6, 8
80004e1c: 13 0f 00 00  	li	t5, 0
80004e20: 93 0e 00 00  	li	t4, 0
80004e24: 33 03 13 01  	add	t1, t1, a7
80004e28: 93 87 08 00  	mv	a5, a7
80004e2c: 33 88 17 41  	sub	a6, a5, a7
80004e30: 93 05 81 00  	addi	a1, sp, 8
80004e34: 33 88 05 01  	add	a6, a1, a6
80004e38: 93 87 17 00  	addi	a5, a5, 1
80004e3c: b7 05 02 00  	lui	a1, 32
80004e40: f3 a6 05 30  	csrrs	a3, mstatus, a1
80004e44: 83 c2 f7 ff  	lbu	t0, -1(a5)
80004e48: 73 90 06 30  	csrw	mstatus, a3
80004e4c: 23 00 58 00  	sb	t0, 0(a6)
80004e50: e3 1e f3 fc  	bne	t1, a5, 0x80004e2c <misaligned_load_trap+0xc0>
80004e54: 13 57 47 00  	srli	a4, a4, 4
80004e58: 13 77 87 0f  	andi	a4, a4, 248
80004e5c: 63 12 0f 02  	bnez	t5, 0x80004e80 <misaligned_load_trap+0x114>
80004e60: 83 37 81 00  	ld	a5, 8(sp)
80004e64: 33 07 e5 00  	add	a4, a0, a4
80004e68: b3 97 d7 01  	sll	a5, a5, t4
80004e6c: b3 d7 d7 41  	sra	a5, a5, t4
80004e70: 23 30 f7 00  	sd	a5, 0(a4)
80004e74: 73 10 1e 34  	csrw	mepc, t3
80004e78: 13 01 01 01  	addi	sp, sp, 16
80004e7c: 67 80 00 00  	ret
80004e80: 93 07 80 00  	li	a5, 8
80004e84: 63 88 ff 04  	beq	t6, a5, 0x80004ed4 <misaligned_load_trap+0x168>
80004e88: 03 25 81 00  	lw	a0, 8(sp)
80004e8c: 97 f7 ff ff  	auipc	a5, 1048575
80004e90: b3 87 e7 00  	add	a5, a5, a4
80004e94: e7 82 47 ba  	jalr	t0, -1116(a5)
80004e98: 73 10 1e 34  	csrw	mepc, t3
80004e9c: 13 01 01 01  	addi	sp, sp, 16
80004ea0: 67 80 00 00  	ret
80004ea4: 23 34 01 00  	sd	zero, 8(sp)
80004ea8: 13 03 40 00  	li	t1, 4
80004eac: 93 0f 40 00  	li	t6, 4
80004eb0: 13 0f 00 00  	li	t5, 0
80004eb4: 93 0e 00 02  	li	t4, 32
80004eb8: 6f f0 df f6  	j	0x80004e24 <misaligned_load_trap+0xb8>
80004ebc: 23 34 01 00  	sd	zero, 8(sp)
80004ec0: 13 03 80 00  	li	t1, 8
80004ec4: 93 0f 80 00  	li	t6, 8
80004ec8: 13 0f 10 00  	li	t5, 1
80004ecc: 93 0e 00 00  	li	t4, 0
80004ed0: 6f f0 5f f5  	j	0x80004e24 <misaligned_load_trap+0xb8>
80004ed4: 03 35 81 00  	ld	a0, 8(sp)
80004ed8: 97 f7 ff ff  	auipc	a5, 1048575
80004edc: b3 87 e7 00  	add	a5, a5, a4
80004ee0: e7 82 87 d5  	jalr	t0, -680(a5)
80004ee4: 73 10 1e 34  	csrw	mepc, t3
80004ee8: 13 01 01 01  	addi	sp, sp, 16
80004eec: 67 80 00 00  	ret
80004ef0: 23 34 01 00  	sd	zero, 8(sp)
80004ef4: 13 03 40 00  	li	t1, 4
80004ef8: 93 0f 40 00  	li	t6, 4
80004efc: 13 0f 00 00  	li	t5, 0
80004f00: 93 0e 00 00  	li	t4, 0
80004f04: 6f f0 1f f2  	j	0x80004e24 <misaligned_load_trap+0xb8>
80004f08: 23 34 01 00  	sd	zero, 8(sp)
80004f0c: 13 03 40 00  	li	t1, 4
80004f10: 93 0f 40 00  	li	t6, 4
80004f14: 13 0f 10 00  	li	t5, 1
80004f18: 93 0e 00 00  	li	t4, 0
80004f1c: 6f f0 9f f0  	j	0x80004e24 <misaligned_load_trap+0xb8>
80004f20: 23 34 01 00  	sd	zero, 8(sp)
80004f24: 13 03 20 00  	li	t1, 2
80004f28: 93 0f 20 00  	li	t6, 2
80004f2c: 13 0f 00 00  	li	t5, 0
80004f30: 93 0e 00 03  	li	t4, 48
80004f34: 6f f0 1f ef  	j	0x80004e24 <misaligned_load_trap+0xb8>
80004f38: 73 d0 22 34  	csrwi	mcause, 5
80004f3c: 93 05 50 00  	li	a1, 5
80004f40: 93 06 08 00  	mv	a3, a6
80004f44: 13 01 01 01  	addi	sp, sp, 16
80004f48: 6f e0 9f e6  	j	0x80003db0 <truly_illegal_insn>

0000000080004f4c <misaligned_store_trap>:
80004f4c: b7 05 0a 00  	lui	a1, 160
80004f50: 93 07 30 00  	li	a5, 3
80004f54: f3 a6 05 30  	csrrs	a3, mstatus, a1
80004f58: 03 67 06 00  	lwu	a4, 0(a2)
80004f5c: 73 90 06 30  	csrw	mstatus, a3
80004f60: 93 75 37 00  	andi	a1, a4, 3
80004f64: 13 01 01 ff  	addi	sp, sp, -16
80004f68: 93 88 06 00  	mv	a7, a3
80004f6c: 13 03 40 00  	li	t1, 4
80004f70: 63 84 f5 00  	beq	a1, a5, 0x80004f78 <misaligned_store_trap+0x2c>
80004f74: 13 03 20 00  	li	t1, 2
80004f78: 93 55 17 01  	srli	a1, a4, 17
80004f7c: 93 f5 85 0f  	andi	a1, a1, 248
80004f80: b3 07 b5 00  	add	a5, a0, a1
80004f84: 83 b7 07 00  	ld	a5, 0(a5)
80004f88: 37 28 00 00  	lui	a6, 2
80004f8c: 93 0e 38 02  	addi	t4, a6, 35
80004f90: 23 34 f1 00  	sd	a5, 8(sp)
80004f94: b7 77 00 00  	lui	a5, 7
80004f98: 93 87 f7 07  	addi	a5, a5, 127
80004f9c: b3 77 f7 00  	and	a5, a4, a5
80004fa0: 33 0e 66 00  	add	t3, a2, t1
80004fa4: 63 8a d7 09  	beq	a5, t4, 0x80005038 <misaligned_store_trap+0xec>
80004fa8: 37 33 00 00  	lui	t1, 3
80004fac: 93 0e 33 02  	addi	t4, t1, 35
80004fb0: 63 8c d7 03  	beq	a5, t4, 0x80004fe8 <misaligned_store_trap+0x9c>
80004fb4: 13 03 73 02  	addi	t1, t1, 39
80004fb8: 63 84 67 0a  	beq	a5, t1, 0x80005060 <misaligned_store_trap+0x114>
80004fbc: 13 08 78 02  	addi	a6, a6, 39
80004fc0: 63 80 07 09  	beq	a5, a6, 0x80005040 <misaligned_store_trap+0xf4>
80004fc4: b7 15 00 00  	lui	a1, 1
80004fc8: 93 85 35 02  	addi	a1, a1, 35
80004fcc: 13 08 20 00  	li	a6, 2
80004fd0: 63 8e b7 00  	beq	a5, a1, 0x80004fec <misaligned_store_trap+0xa0>
80004fd4: 73 d0 23 34  	csrwi	mcause, 7
80004fd8: 93 05 70 00  	li	a1, 7
80004fdc: 93 86 08 00  	mv	a3, a7
80004fe0: 13 01 01 01  	addi	sp, sp, 16
80004fe4: 6f e0 df dc  	j	0x80003db0 <truly_illegal_insn>
80004fe8: 13 08 80 00  	li	a6, 8
80004fec: f3 28 30 34  	csrr	a7, mtval
80004ff0: 1b 08 f8 ff  	addiw	a6, a6, -1
80004ff4: 13 18 08 02  	slli	a6, a6, 32
80004ff8: 13 58 08 02  	srli	a6, a6, 32
80004ffc: 93 07 81 00  	addi	a5, sp, 8
80005000: 13 07 91 00  	addi	a4, sp, 9
80005004: 33 08 e8 00  	add	a6, a6, a4
80005008: b3 88 f8 40  	sub	a7, a7, a5
8000500c: 03 c7 07 00  	lbu	a4, 0(a5)
80005010: 33 85 f8 00  	add	a0, a7, a5
80005014: b7 05 02 00  	lui	a1, 32
80005018: f3 a6 05 30  	csrrs	a3, mstatus, a1
8000501c: 23 00 e5 00  	sb	a4, 0(a0)
80005020: 73 90 06 30  	csrw	mstatus, a3
80005024: 93 87 17 00  	addi	a5, a5, 1
80005028: e3 92 07 ff  	bne	a5, a6, 0x8000500c <misaligned_store_trap+0xc0>
8000502c: 73 10 1e 34  	csrw	mepc, t3
80005030: 13 01 01 01  	addi	sp, sp, 16
80005034: 67 80 00 00  	ret
80005038: 13 08 40 00  	li	a6, 4
8000503c: 6f f0 1f fb  	j	0x80004fec <misaligned_store_trap+0xa0>
80005040: 13 85 05 00  	mv	a0, a1
80005044: 97 f7 ff ff  	auipc	a5, 1048575
80005048: b3 87 a7 00  	add	a5, a5, a0
8000504c: e7 82 c7 8e  	jalr	t0, -1812(a5)
80005050: 1b 05 05 00  	sext.w	a0, a0
80005054: 23 34 a1 00  	sd	a0, 8(sp)
80005058: 13 08 40 00  	li	a6, 4
8000505c: 6f f0 1f f9  	j	0x80004fec <misaligned_store_trap+0xa0>
80005060: 13 85 05 00  	mv	a0, a1
80005064: 13 08 80 00  	li	a6, 8
80005068: 97 f7 ff ff  	auipc	a5, 1048575
8000506c: b3 87 a7 00  	add	a5, a5, a0
80005070: e7 82 87 ac  	jalr	t0, -1336(a5)
80005074: 23 34 a1 00  	sd	a0, 8(sp)
80005078: 6f f0 5f f7  	j	0x80004fec <misaligned_store_trap+0xa0>

000000008000507c <f32_add>:
8000507c: b3 47 b5 00  	xor	a5, a0, a1
80005080: 13 97 07 02  	slli	a4, a5, 32
80005084: 13 15 05 02  	slli	a0, a0, 32
80005088: 93 95 05 02  	slli	a1, a1, 32
8000508c: 13 55 05 02  	srli	a0, a0, 32
80005090: 93 d5 05 02  	srli	a1, a1, 32
80005094: 17 13 00 00  	auipc	t1, 1
80005098: 13 03 43 32  	addi	t1, t1, 804
8000509c: 63 56 07 00  	bgez	a4, 0x800050a8 <f32_add+0x2c>
800050a0: 17 33 00 00  	auipc	t1, 3
800050a4: 13 03 c3 91  	addi	t1, t1, -1764
800050a8: 67 00 03 00  	jr	t1

00000000800050ac <f32_div>:
800050ac: 13 01 01 fb  	addi	sp, sp, -80
800050b0: b7 07 80 00  	lui	a5, 2048
800050b4: 93 87 f7 ff  	addi	a5, a5, -1
800050b8: 23 3c 91 02  	sd	s1, 56(sp)
800050bc: 9b 54 75 01  	srliw	s1, a0, 23
800050c0: 33 f7 a7 00  	and	a4, a5, a0
800050c4: 23 30 81 04  	sd	s0, 64(sp)
800050c8: b3 f7 b7 00  	and	a5, a5, a1
800050cc: 33 c4 a5 00  	xor	s0, a1, a0
800050d0: 23 38 21 03  	sd	s2, 48(sp)
800050d4: 23 34 31 03  	sd	s3, 40(sp)
800050d8: 1b d9 75 01  	srliw	s2, a1, 23
800050dc: 13 15 05 02  	slli	a0, a0, 32
800050e0: 93 95 05 02  	slli	a1, a1, 32
800050e4: 23 34 11 04  	sd	ra, 72(sp)
800050e8: 23 30 41 03  	sd	s4, 32(sp)
800050ec: 23 3c 51 01  	sd	s5, 24(sp)
800050f0: 93 f4 f4 0f  	andi	s1, s1, 255
800050f4: 93 06 f0 0f  	li	a3, 255
800050f8: 13 55 05 02  	srli	a0, a0, 32
800050fc: 9b 09 07 00  	sext.w	s3, a4
80005100: 93 d5 05 02  	srli	a1, a1, 32
80005104: 13 79 f9 0f  	andi	s2, s2, 255
80005108: 9b 87 07 00  	sext.w	a5, a5
8000510c: 1b 54 f4 01  	srliw	s0, s0, 31
80005110: 63 86 d4 06  	beq	s1, a3, 0x8000517c <f32_div+0xd0>
80005114: 63 0c d9 02  	beq	s2, a3, 0x8000514c <f32_div+0xa0>
80005118: 13 9a 09 02  	slli	s4, s3, 32
8000511c: 93 9a 07 02  	slli	s5, a5, 32
80005120: 13 5a 0a 02  	srli	s4, s4, 32
80005124: 93 da 0a 02  	srli	s5, s5, 32
80005128: 63 1e 09 06  	bnez	s2, 0x800051a4 <f32_div+0xf8>
8000512c: 63 94 07 06  	bnez	a5, 0x80005194 <f32_div+0xe8>
80005130: b3 e4 44 01  	or	s1, s1, s4
80005134: 63 8a 04 04  	beqz	s1, 0x80005188 <f32_div+0xdc>
80005138: f3 67 14 00  	csrrsi	a5, fflags, 8
8000513c: 1b 14 f4 01  	slliw	s0, s0, 31
80005140: 37 05 80 7f  	lui	a0, 522240
80005144: 3b 05 a4 00  	addw	a0, s0, a0
80005148: 6f 00 00 01  	j	0x80005158 <f32_div+0xac>
8000514c: 63 80 07 10  	beqz	a5, 0x8000524c <f32_div+0x1a0>
80005150: ef 20 10 4e  	jal	0x80007e30 <softfloat_propagateNaNF32UI>
80005154: 1b 05 05 00  	sext.w	a0, a0
80005158: 83 30 81 04  	ld	ra, 72(sp)
8000515c: 03 34 01 04  	ld	s0, 64(sp)
80005160: 83 34 81 03  	ld	s1, 56(sp)
80005164: 03 39 01 03  	ld	s2, 48(sp)
80005168: 83 39 81 02  	ld	s3, 40(sp)
8000516c: 03 3a 01 02  	ld	s4, 32(sp)
80005170: 83 3a 81 01  	ld	s5, 24(sp)
80005174: 13 01 01 05  	addi	sp, sp, 80
80005178: 67 80 00 00  	ret
8000517c: e3 9a 09 fc  	bnez	s3, 0x80005150 <f32_div+0xa4>
80005180: e3 1e 99 fa  	bne	s2, s1, 0x8000513c <f32_div+0x90>
80005184: e3 96 07 fc  	bnez	a5, 0x80005150 <f32_div+0xa4>
80005188: f3 67 18 00  	csrrsi	a5, fflags, 16
8000518c: 37 05 c0 7f  	lui	a0, 523264
80005190: 6f f0 9f fc  	j	0x80005158 <f32_div+0xac>
80005194: 13 85 0a 00  	mv	a0, s5
80005198: ef 10 50 7b  	jal	0x8000714c <softfloat_normSubnormalF32Sig>
8000519c: 13 09 05 00  	mv	s2, a0
800051a0: 93 8a 05 00  	mv	s5, a1
800051a4: 63 9c 04 00  	bnez	s1, 0x800051bc <f32_div+0x110>
800051a8: 63 82 09 0a  	beqz	s3, 0x8000524c <f32_div+0x1a0>
800051ac: 13 05 0a 00  	mv	a0, s4
800051b0: ef 10 d0 79  	jal	0x8000714c <softfloat_normSubnormalF32Sig>
800051b4: 93 04 05 00  	mv	s1, a0
800051b8: 13 8a 05 00  	mv	s4, a1
800051bc: b7 05 80 00  	lui	a1, 2048
800051c0: 33 6a ba 00  	or	s4, s4, a1
800051c4: b3 ea ba 00  	or	s5, s5, a1
800051c8: b3 84 24 41  	sub	s1, s1, s2
800051cc: 63 64 5a 09  	bltu	s4, s5, 0x80005254 <f32_div+0x1a8>
800051d0: 93 84 e4 07  	addi	s1, s1, 126
800051d4: 13 1a 7a 00  	slli	s4, s4, 7
800051d8: 93 9a 8a 00  	slli	s5, s5, 8
800051dc: 1b 85 0a 00  	sext.w	a0, s5
800051e0: ef 10 00 51  	jal	0x800066f0 <softfloat_approxRecip32_1>
800051e4: 13 16 05 02  	slli	a2, a0, 32
800051e8: 13 56 06 02  	srli	a2, a2, 32
800051ec: 33 06 46 03  	<unknown>
800051f0: 13 56 06 02  	srli	a2, a2, 32
800051f4: 13 06 26 00  	addi	a2, a2, 2
800051f8: 93 77 e6 03  	andi	a5, a2, 62
800051fc: 63 92 07 02  	bnez	a5, 0x80005220 <f32_div+0x174>
80005200: 13 76 c6 ff  	andi	a2, a2, -4
80005204: 93 17 16 00  	slli	a5, a2, 1
80005208: b3 8a 57 03  	<unknown>
8000520c: 13 1a 0a 02  	slli	s4, s4, 32
80005210: 33 0a 5a 41  	sub	s4, s4, s5
80005214: 63 46 0a 04  	bltz	s4, 0x80005260 <f32_div+0x1b4>
80005218: 63 04 0a 00  	beqz	s4, 0x80005220 <f32_div+0x174>
8000521c: 13 66 16 00  	ori	a2, a2, 1
80005220: 13 05 04 00  	mv	a0, s0
80005224: 03 34 01 04  	ld	s0, 64(sp)
80005228: 83 30 81 04  	ld	ra, 72(sp)
8000522c: 03 39 01 03  	ld	s2, 48(sp)
80005230: 83 39 81 02  	ld	s3, 40(sp)
80005234: 03 3a 01 02  	ld	s4, 32(sp)
80005238: 83 3a 81 01  	ld	s5, 24(sp)
8000523c: 93 85 04 00  	mv	a1, s1
80005240: 83 34 81 03  	ld	s1, 56(sp)
80005244: 13 01 01 05  	addi	sp, sp, 80
80005248: 6f 20 40 03  	j	0x8000727c <softfloat_roundPackToF32>
8000524c: 1b 15 f4 01  	slliw	a0, s0, 31
80005250: 6f f0 9f f0  	j	0x80005158 <f32_div+0xac>
80005254: 93 84 d4 07  	addi	s1, s1, 125
80005258: 13 1a 8a 00  	slli	s4, s4, 8
8000525c: 6f f0 df f7  	j	0x800051d8 <f32_div+0x12c>
80005260: 13 06 c6 ff  	addi	a2, a2, -4
80005264: 6f f0 df fb  	j	0x80005220 <f32_div+0x174>

0000000080005268 <f32_eq>:
80005268: 93 07 05 00  	mv	a5, a0
8000526c: 93 96 07 02  	slli	a3, a5, 32
80005270: 93 d6 06 02  	srli	a3, a3, 32
80005274: 37 06 80 7f  	lui	a2, 522240
80005278: 13 c7 f6 ff  	not	a4, a3
8000527c: 33 77 c7 00  	and	a4, a4, a2
80005280: 13 96 05 02  	slli	a2, a1, 32
80005284: 13 56 06 02  	srli	a2, a2, 32
80005288: 63 16 07 00  	bnez	a4, 0x80005294 <f32_eq+0x2c>
8000528c: 13 97 97 02  	slli	a4, a5, 41
80005290: 63 1a 07 02  	bnez	a4, 0x800052c4 <f32_eq+0x5c>
80005294: 13 47 f6 ff  	not	a4, a2
80005298: 37 05 80 7f  	lui	a0, 522240
8000529c: 33 77 a7 00  	and	a4, a4, a0
800052a0: 63 16 07 00  	bnez	a4, 0x800052ac <f32_eq+0x44>
800052a4: 13 97 95 02  	slli	a4, a1, 41
800052a8: 63 1e 07 00  	bnez	a4, 0x800052c4 <f32_eq+0x5c>
800052ac: 13 05 10 00  	li	a0, 1
800052b0: 63 88 c6 00  	beq	a3, a2, 0x800052c0 <f32_eq+0x58>
800052b4: 33 e5 b7 00  	or	a0, a5, a1
800052b8: 1b 15 15 00  	slliw	a0, a0, 1
800052bc: 13 35 15 00  	seqz	a0, a0
800052c0: 67 80 00 00  	ret
800052c4: 37 07 c0 7f  	lui	a4, 523264
800052c8: 33 f7 e7 00  	and	a4, a5, a4
800052cc: b7 06 80 7f  	lui	a3, 522240
800052d0: 63 06 d7 02  	beq	a4, a3, 0x800052fc <f32_eq+0x94>
800052d4: b7 07 c0 7f  	lui	a5, 523264
800052d8: b3 f7 f5 00  	and	a5, a1, a5
800052dc: 37 07 80 7f  	lui	a4, 522240
800052e0: 13 05 00 00  	li	a0, 0
800052e4: e3 9e e7 fc  	bne	a5, a4, 0x800052c0 <f32_eq+0x58>
800052e8: 93 95 a5 02  	slli	a1, a1, 42
800052ec: e3 8a 05 fc  	beqz	a1, 0x800052c0 <f32_eq+0x58>
800052f0: f3 67 18 00  	csrrsi	a5, fflags, 16
800052f4: 13 05 00 00  	li	a0, 0
800052f8: 67 80 00 00  	ret
800052fc: 13 97 a7 02  	slli	a4, a5, 42
80005300: e3 18 07 fe  	bnez	a4, 0x800052f0 <f32_eq+0x88>
80005304: 6f f0 1f fd  	j	0x800052d4 <f32_eq+0x6c>

0000000080005308 <f32_lt>:
80005308: 93 07 05 00  	mv	a5, a0
8000530c: 93 96 07 02  	slli	a3, a5, 32
80005310: 93 d6 06 02  	srli	a3, a3, 32
80005314: 37 06 80 7f  	lui	a2, 522240
80005318: 13 c7 f6 ff  	not	a4, a3
8000531c: 33 77 c7 00  	and	a4, a4, a2
80005320: 13 96 05 02  	slli	a2, a1, 32
80005324: 13 56 06 02  	srli	a2, a2, 32
80005328: 63 16 07 00  	bnez	a4, 0x80005334 <f32_lt+0x2c>
8000532c: 13 97 97 02  	slli	a4, a5, 41
80005330: 63 16 07 04  	bnez	a4, 0x8000537c <f32_lt+0x74>
80005334: 13 47 f6 ff  	not	a4, a2
80005338: 37 05 80 7f  	lui	a0, 522240
8000533c: 33 77 a7 00  	and	a4, a4, a0
80005340: 63 16 07 00  	bnez	a4, 0x8000534c <f32_lt+0x44>
80005344: 13 97 95 02  	slli	a4, a1, 41
80005348: 63 1a 07 02  	bnez	a4, 0x8000537c <f32_lt+0x74>
8000534c: 1b d8 f7 01  	srliw	a6, a5, 31
80005350: 1b d7 f5 01  	srliw	a4, a1, 31
80005354: 9b 88 07 00  	sext.w	a7, a5
80005358: 13 05 00 00  	li	a0, 0
8000535c: 63 06 e8 00  	beq	a6, a4, 0x80005368 <f32_lt+0x60>
80005360: 63 c4 08 02  	bltz	a7, 0x80005388 <f32_lt+0x80>
80005364: 67 80 00 00  	ret
80005368: e3 8e c6 fe  	beq	a3, a2, 0x80005364 <f32_lt+0x5c>
8000536c: 33 b5 c6 00  	sltu	a0, a3, a2
80005370: 33 05 05 41  	sub	a0, a0, a6
80005374: 33 35 a0 00  	snez	a0, a0
80005378: 67 80 00 00  	ret
8000537c: f3 67 18 00  	csrrsi	a5, fflags, 16
80005380: 13 05 00 00  	li	a0, 0
80005384: 67 80 00 00  	ret
80005388: 33 e5 b7 00  	or	a0, a5, a1
8000538c: 1b 15 15 00  	slliw	a0, a0, 1
80005390: 33 35 a0 00  	snez	a0, a0
80005394: 67 80 00 00  	ret

0000000080005398 <f32_lt_quiet>:
80005398: 93 07 05 00  	mv	a5, a0
8000539c: 93 96 07 02  	slli	a3, a5, 32
800053a0: 93 d6 06 02  	srli	a3, a3, 32
800053a4: 37 06 80 7f  	lui	a2, 522240
800053a8: 13 c7 f6 ff  	not	a4, a3
800053ac: 33 77 c7 00  	and	a4, a4, a2
800053b0: 13 96 05 02  	slli	a2, a1, 32
800053b4: 13 56 06 02  	srli	a2, a2, 32
800053b8: 63 16 07 00  	bnez	a4, 0x800053c4 <f32_lt_quiet+0x2c>
800053bc: 13 97 97 02  	slli	a4, a5, 41
800053c0: 63 16 07 04  	bnez	a4, 0x8000540c <f32_lt_quiet+0x74>
800053c4: 13 47 f6 ff  	not	a4, a2
800053c8: 37 05 80 7f  	lui	a0, 522240
800053cc: 33 77 a7 00  	and	a4, a4, a0
800053d0: 63 16 07 00  	bnez	a4, 0x800053dc <f32_lt_quiet+0x44>
800053d4: 13 97 95 02  	slli	a4, a1, 41
800053d8: 63 1a 07 02  	bnez	a4, 0x8000540c <f32_lt_quiet+0x74>
800053dc: 1b d8 f7 01  	srliw	a6, a5, 31
800053e0: 1b d7 f5 01  	srliw	a4, a1, 31
800053e4: 9b 88 07 00  	sext.w	a7, a5
800053e8: 13 05 00 00  	li	a0, 0
800053ec: 63 06 e8 00  	beq	a6, a4, 0x800053f8 <f32_lt_quiet+0x60>
800053f0: 63 ca 08 04  	bltz	a7, 0x80005444 <f32_lt_quiet+0xac>
800053f4: 67 80 00 00  	ret
800053f8: e3 8e c6 fe  	beq	a3, a2, 0x800053f4 <f32_lt_quiet+0x5c>
800053fc: 33 b5 c6 00  	sltu	a0, a3, a2
80005400: 33 05 05 41  	sub	a0, a0, a6
80005404: 33 35 a0 00  	snez	a0, a0
80005408: 67 80 00 00  	ret
8000540c: 37 07 c0 7f  	lui	a4, 523264
80005410: 33 f7 e7 00  	and	a4, a5, a4
80005414: b7 06 80 7f  	lui	a3, 522240
80005418: 63 0e d7 02  	beq	a4, a3, 0x80005454 <f32_lt_quiet+0xbc>
8000541c: b7 07 c0 7f  	lui	a5, 523264
80005420: b3 f7 f5 00  	and	a5, a1, a5
80005424: 37 07 80 7f  	lui	a4, 522240
80005428: 13 05 00 00  	li	a0, 0
8000542c: e3 94 e7 fc  	bne	a5, a4, 0x800053f4 <f32_lt_quiet+0x5c>
80005430: 93 95 a5 02  	slli	a1, a1, 42
80005434: e3 80 05 fc  	beqz	a1, 0x800053f4 <f32_lt_quiet+0x5c>
80005438: f3 67 18 00  	csrrsi	a5, fflags, 16
8000543c: 13 05 00 00  	li	a0, 0
80005440: 67 80 00 00  	ret
80005444: 33 e5 b7 00  	or	a0, a5, a1
80005448: 1b 15 15 00  	slliw	a0, a0, 1
8000544c: 33 35 a0 00  	snez	a0, a0
80005450: 67 80 00 00  	ret
80005454: 13 97 a7 02  	slli	a4, a5, 42
80005458: e3 10 07 fe  	bnez	a4, 0x80005438 <f32_lt_quiet+0xa0>
8000545c: 6f f0 1f fc  	j	0x8000541c <f32_lt_quiet+0x84>

0000000080005460 <f32_mul>:
80005460: b7 07 80 00  	lui	a5, 2048
80005464: 13 01 01 fb  	addi	sp, sp, -80
80005468: 93 87 f7 ff  	addi	a5, a5, -1
8000546c: 33 f7 b7 00  	and	a4, a5, a1
80005470: 23 30 41 03  	sd	s4, 32(sp)
80005474: 1b 5a 75 01  	srliw	s4, a0, 23
80005478: 33 c6 a5 00  	xor	a2, a1, a0
8000547c: b3 f7 a7 00  	and	a5, a5, a0
80005480: 23 30 81 04  	sd	s0, 64(sp)
80005484: 23 3c 91 02  	sd	s1, 56(sp)
80005488: 23 34 31 03  	sd	s3, 40(sp)
8000548c: 9b d4 75 01  	srliw	s1, a1, 23
80005490: 23 3c 51 01  	sd	s5, 24(sp)
80005494: 13 15 05 02  	slli	a0, a0, 32
80005498: 93 95 05 02  	slli	a1, a1, 32
8000549c: 13 14 07 02  	slli	s0, a4, 32
800054a0: 23 34 11 04  	sd	ra, 72(sp)
800054a4: 23 38 21 03  	sd	s2, 48(sp)
800054a8: 13 7a fa 0f  	andi	s4, s4, 255
800054ac: 93 06 f0 0f  	li	a3, 255
800054b0: 13 55 05 02  	srli	a0, a0, 32
800054b4: 9b 87 07 00  	sext.w	a5, a5
800054b8: 93 d5 05 02  	srli	a1, a1, 32
800054bc: 93 f4 f4 0f  	andi	s1, s1, 255
800054c0: 9b 0a 07 00  	sext.w	s5, a4
800054c4: 13 54 04 02  	srli	s0, s0, 32
800054c8: 9b 59 f6 01  	srliw	s3, a2, 31
800054cc: 63 0a da 04  	beq	s4, a3, 0x80005520 <f32_mul+0xc0>
800054d0: 13 99 07 02  	slli	s2, a5, 32
800054d4: 13 59 09 02  	srli	s2, s2, 32
800054d8: 63 8a d4 00  	beq	s1, a3, 0x800054ec <f32_mul+0x8c>
800054dc: 63 18 0a 06  	bnez	s4, 0x8000554c <f32_mul+0xec>
800054e0: 63 9e 07 04  	bnez	a5, 0x8000553c <f32_mul+0xdc>
800054e4: 1b 95 f9 01  	slliw	a0, s3, 31
800054e8: 6f 00 40 01  	j	0x800054fc <f32_mul+0x9c>
800054ec: 33 67 2a 01  	or	a4, s4, s2
800054f0: 63 8e 0a 02  	beqz	s5, 0x8000552c <f32_mul+0xcc>
800054f4: ef 20 d0 13  	jal	0x80007e30 <softfloat_propagateNaNF32UI>
800054f8: 1b 05 05 00  	sext.w	a0, a0
800054fc: 83 30 81 04  	ld	ra, 72(sp)
80005500: 03 34 01 04  	ld	s0, 64(sp)
80005504: 83 34 81 03  	ld	s1, 56(sp)
80005508: 03 39 01 03  	ld	s2, 48(sp)
8000550c: 83 39 81 02  	ld	s3, 40(sp)
80005510: 03 3a 01 02  	ld	s4, 32(sp)
80005514: 83 3a 81 01  	ld	s5, 24(sp)
80005518: 13 01 01 05  	addi	sp, sp, 80
8000551c: 67 80 00 00  	ret
80005520: e3 9a 07 fc  	bnez	a5, 0x800054f4 <f32_mul+0x94>
80005524: 63 88 44 0b  	beq	s1, s4, 0x800055d4 <f32_mul+0x174>
80005528: 33 e7 84 00  	or	a4, s1, s0
8000552c: 63 1c 07 08  	bnez	a4, 0x800055c4 <f32_mul+0x164>
80005530: f3 67 18 00  	csrrsi	a5, fflags, 16
80005534: 37 05 c0 7f  	lui	a0, 523264
80005538: 6f f0 5f fc  	j	0x800054fc <f32_mul+0x9c>
8000553c: 13 05 09 00  	mv	a0, s2
80005540: ef 10 d0 40  	jal	0x8000714c <softfloat_normSubnormalF32Sig>
80005544: 13 0a 05 00  	mv	s4, a0
80005548: 13 89 05 00  	mv	s2, a1
8000554c: 63 9c 04 00  	bnez	s1, 0x80005564 <f32_mul+0x104>
80005550: e3 8a 0a f8  	beqz	s5, 0x800054e4 <f32_mul+0x84>
80005554: 13 05 04 00  	mv	a0, s0
80005558: ef 10 50 3f  	jal	0x8000714c <softfloat_normSubnormalF32Sig>
8000555c: 93 04 05 00  	mv	s1, a0
80005560: 13 84 05 00  	mv	s0, a1
80005564: 93 07 10 00  	li	a5, 1
80005568: 13 17 84 00  	slli	a4, s0, 8
8000556c: 13 19 79 00  	slli	s2, s2, 7
80005570: 37 04 00 40  	lui	s0, 262144
80005574: 93 97 f7 01  	slli	a5, a5, 31
80005578: b3 67 f7 00  	or	a5, a4, a5
8000557c: 33 69 89 00  	or	s2, s2, s0
80005580: 33 05 f9 02  	<unknown>
80005584: 93 05 00 02  	li	a1, 32
80005588: b3 04 9a 00  	add	s1, s4, s1
8000558c: ef 20 80 30  	jal	0x80007894 <softfloat_shortShiftRightJam64>
80005590: 13 06 05 00  	mv	a2, a0
80005594: 93 85 14 f8  	addi	a1, s1, -127
80005598: 63 64 85 04  	bltu	a0, s0, 0x800055e0 <f32_mul+0x180>
8000559c: 03 34 01 04  	ld	s0, 64(sp)
800055a0: 83 30 81 04  	ld	ra, 72(sp)
800055a4: 83 34 81 03  	ld	s1, 56(sp)
800055a8: 03 39 01 03  	ld	s2, 48(sp)
800055ac: 03 3a 01 02  	ld	s4, 32(sp)
800055b0: 83 3a 81 01  	ld	s5, 24(sp)
800055b4: 13 85 09 00  	mv	a0, s3
800055b8: 83 39 81 02  	ld	s3, 40(sp)
800055bc: 13 01 01 05  	addi	sp, sp, 80
800055c0: 6f 10 d0 4b  	j	0x8000727c <softfloat_roundPackToF32>
800055c4: 1b 95 f9 01  	slliw	a0, s3, 31
800055c8: b7 07 80 7f  	lui	a5, 522240
800055cc: 3b 05 f5 00  	addw	a0, a0, a5
800055d0: 6f f0 df f2  	j	0x800054fc <f32_mul+0x9c>
800055d4: e3 90 0a f2  	bnez	s5, 0x800054f4 <f32_mul+0x94>
800055d8: 33 e7 84 00  	or	a4, s1, s0
800055dc: 6f f0 1f f5  	j	0x8000552c <f32_mul+0xcc>
800055e0: 93 85 04 f8  	addi	a1, s1, -128
800055e4: 13 16 15 00  	slli	a2, a0, 1
800055e8: 6f f0 5f fb  	j	0x8000559c <f32_mul+0x13c>

00000000800055ec <f32_sqrt>:
800055ec: 13 01 01 fd  	addi	sp, sp, -48
800055f0: 9b 57 75 01  	srliw	a5, a0, 23
800055f4: 13 17 95 02  	slli	a4, a0, 41
800055f8: 23 34 11 02  	sd	ra, 40(sp)
800055fc: 23 30 81 02  	sd	s0, 32(sp)
80005600: 23 3c 91 00  	sd	s1, 24(sp)
80005604: 23 38 21 01  	sd	s2, 16(sp)
80005608: 93 f7 f7 0f  	andi	a5, a5, 255
8000560c: 93 06 f0 0f  	li	a3, 255
80005610: 1b 06 05 00  	sext.w	a2, a0
80005614: 13 57 97 02  	srli	a4, a4, 41
80005618: 63 8c d7 04  	beq	a5, a3, 0x80005670 <f32_sqrt+0x84>
8000561c: 93 15 07 02  	slli	a1, a4, 32
80005620: 93 d5 05 02  	srli	a1, a1, 32
80005624: 63 42 06 02  	bltz	a2, 0x80005648 <f32_sqrt+0x5c>
80005628: 63 9a 07 06  	bnez	a5, 0x8000569c <f32_sqrt+0xb0>
8000562c: 63 12 07 06  	bnez	a4, 0x80005690 <f32_sqrt+0xa4>
80005630: 83 30 81 02  	ld	ra, 40(sp)
80005634: 03 34 01 02  	ld	s0, 32(sp)
80005638: 83 34 81 01  	ld	s1, 24(sp)
8000563c: 03 39 01 01  	ld	s2, 16(sp)
80005640: 13 01 01 03  	addi	sp, sp, 48
80005644: 67 80 00 00  	ret
80005648: b3 e7 b7 00  	or	a5, a5, a1
8000564c: e3 82 07 fe  	beqz	a5, 0x80005630 <f32_sqrt+0x44>
80005650: f3 67 18 00  	csrrsi	a5, fflags, 16
80005654: 83 30 81 02  	ld	ra, 40(sp)
80005658: 03 34 01 02  	ld	s0, 32(sp)
8000565c: 83 34 81 01  	ld	s1, 24(sp)
80005660: 03 39 01 01  	ld	s2, 16(sp)
80005664: 37 05 c0 7f  	lui	a0, 523264
80005668: 13 01 01 03  	addi	sp, sp, 48
8000566c: 67 80 00 00  	ret
80005670: 63 12 07 0c  	bnez	a4, 0x80005734 <f32_sqrt+0x148>
80005674: e3 4e 06 fc  	bltz	a2, 0x80005650 <f32_sqrt+0x64>
80005678: 83 30 81 02  	ld	ra, 40(sp)
8000567c: 03 34 01 02  	ld	s0, 32(sp)
80005680: 83 34 81 01  	ld	s1, 24(sp)
80005684: 03 39 01 01  	ld	s2, 16(sp)
80005688: 13 01 01 03  	addi	sp, sp, 48
8000568c: 67 80 00 00  	ret
80005690: 13 85 05 00  	mv	a0, a1
80005694: ef 10 90 2b  	jal	0x8000714c <softfloat_normSubnormalF32Sig>
80005698: 93 07 05 00  	mv	a5, a0
8000569c: 93 04 10 00  	li	s1, 1
800056a0: 93 95 85 00  	slli	a1, a1, 8
800056a4: 93 94 f4 01  	slli	s1, s1, 31
800056a8: b3 e4 95 00  	or	s1, a1, s1
800056ac: 9b 85 04 00  	sext.w	a1, s1
800056b0: 13 f5 17 00  	andi	a0, a5, 1
800056b4: 13 89 17 f8  	addi	s2, a5, -127
800056b8: 13 04 05 00  	mv	s0, a0
800056bc: ef 10 c0 0c  	jal	0x80006788 <softfloat_approxRecipSqrt32_1>
800056c0: 13 15 05 02  	slli	a0, a0, 32
800056c4: 13 55 05 02  	srli	a0, a0, 32
800056c8: b3 04 95 02  	<unknown>
800056cc: 13 59 19 40  	srai	s2, s2, 1
800056d0: 13 09 e9 07  	addi	s2, s2, 126
800056d4: 13 d6 14 02  	srli	a2, s1, 33
800056d8: 63 04 04 04  	beqz	s0, 0x80005720 <f32_sqrt+0x134>
800056dc: 13 06 26 00  	addi	a2, a2, 2
800056e0: 93 77 e6 03  	andi	a5, a2, 62
800056e4: 63 9e 07 00  	bnez	a5, 0x80005700 <f32_sqrt+0x114>
800056e8: 93 57 26 00  	srli	a5, a2, 2
800056ec: bb 87 f7 02  	<unknown>
800056f0: 13 76 c6 ff  	andi	a2, a2, -4
800056f4: 63 ce 07 04  	bltz	a5, 0x80005750 <f32_sqrt+0x164>
800056f8: b3 37 f0 00  	snez	a5, a5
800056fc: 33 06 f6 40  	sub	a2, a2, a5
80005700: 03 34 01 02  	ld	s0, 32(sp)
80005704: 83 30 81 02  	ld	ra, 40(sp)
80005708: 83 34 81 01  	ld	s1, 24(sp)
8000570c: 93 05 09 00  	mv	a1, s2
80005710: 03 39 01 01  	ld	s2, 16(sp)
80005714: 13 05 00 00  	li	a0, 0
80005718: 13 01 01 03  	addi	sp, sp, 48
8000571c: 6f 10 10 36  	j	0x8000727c <softfloat_roundPackToF32>
80005720: 13 d6 04 02  	srli	a2, s1, 32
80005724: 13 06 26 00  	addi	a2, a2, 2
80005728: 93 77 e6 03  	andi	a5, a2, 62
8000572c: e3 9a 07 fc  	bnez	a5, 0x80005700 <f32_sqrt+0x114>
80005730: 6f f0 9f fb  	j	0x800056e8 <f32_sqrt+0xfc>
80005734: 13 18 05 02  	slli	a6, a0, 32
80005738: 13 58 08 02  	srli	a6, a6, 32
8000573c: 93 05 00 00  	li	a1, 0
80005740: 13 05 08 00  	mv	a0, a6
80005744: ef 20 c0 6e  	jal	0x80007e30 <softfloat_propagateNaNF32UI>
80005748: 1b 05 05 00  	sext.w	a0, a0
8000574c: 6f f0 5f ee  	j	0x80005630 <f32_sqrt+0x44>
80005750: 13 66 16 00  	ori	a2, a2, 1
80005754: 6f f0 df fa  	j	0x80005700 <f32_sqrt+0x114>

0000000080005758 <f32_to_f64>:
80005758: 13 01 01 fe  	addi	sp, sp, -32
8000575c: 9b 57 75 01  	srliw	a5, a0, 23
80005760: 23 38 81 00  	sd	s0, 16(sp)
80005764: 93 15 95 02  	slli	a1, a0, 41
80005768: 23 3c 11 00  	sd	ra, 24(sp)
8000576c: 93 f7 f7 0f  	andi	a5, a5, 255
80005770: 13 07 f0 0f  	li	a4, 255
80005774: 1b 54 f5 01  	srliw	s0, a0, 31
80005778: 93 d6 95 02  	srli	a3, a1, 41
8000577c: 63 86 e7 04  	beq	a5, a4, 0x800057c8 <f32_to_f64+0x70>
80005780: 93 85 06 00  	mv	a1, a3
80005784: 13 14 f4 03  	slli	s0, s0, 63
80005788: 63 86 07 02  	beqz	a5, 0x800057b4 <f32_to_f64+0x5c>
8000578c: 93 87 07 38  	addi	a5, a5, 896
80005790: 93 95 d5 01  	slli	a1, a1, 29
80005794: 93 97 47 03  	slli	a5, a5, 52
80005798: 33 84 85 00  	add	s0, a1, s0
8000579c: 33 84 87 00  	add	s0, a5, s0
800057a0: 83 30 81 01  	ld	ra, 24(sp)
800057a4: 13 05 04 00  	mv	a0, s0
800057a8: 03 34 01 01  	ld	s0, 16(sp)
800057ac: 13 01 01 02  	addi	sp, sp, 32
800057b0: 67 80 00 00  	ret
800057b4: e3 86 06 fe  	beqz	a3, 0x800057a0 <f32_to_f64+0x48>
800057b8: 13 85 06 00  	mv	a0, a3
800057bc: ef 10 10 19  	jal	0x8000714c <softfloat_normSubnormalF32Sig>
800057c0: 93 07 f5 ff  	addi	a5, a0, -1
800057c4: 6f f0 9f fc  	j	0x8000578c <f32_to_f64+0x34>
800057c8: 63 8e 06 00  	beqz	a3, 0x800057e4 <f32_to_f64+0x8c>
800057cc: 93 17 95 02  	slli	a5, a0, 41
800057d0: 63 cc 07 02  	bltz	a5, 0x80005808 <f32_to_f64+0xb0>
800057d4: f3 67 18 00  	csrrsi	a5, fflags, 16
800057d8: 37 f4 ff 00  	lui	s0, 4095
800057dc: 13 14 74 02  	slli	s0, s0, 39
800057e0: 6f f0 1f fc  	j	0x800057a0 <f32_to_f64+0x48>
800057e4: 93 07 f0 7f  	li	a5, 2047
800057e8: 13 14 f4 03  	slli	s0, s0, 63
800057ec: 93 97 47 03  	slli	a5, a5, 52
800057f0: 33 04 f4 00  	add	s0, s0, a5
800057f4: 83 30 81 01  	ld	ra, 24(sp)
800057f8: 13 05 04 00  	mv	a0, s0
800057fc: 03 34 01 01  	ld	s0, 16(sp)
80005800: 13 01 01 02  	addi	sp, sp, 32
80005804: 67 80 00 00  	ret
80005808: 37 f4 ff 00  	lui	s0, 4095
8000580c: 13 14 74 02  	slli	s0, s0, 39
80005810: 6f f0 1f f9  	j	0x800057a0 <f32_to_f64+0x48>

0000000080005814 <f32_classify>:
80005814: 93 07 05 00  	mv	a5, a0
80005818: 9b d6 77 01  	srliw	a3, a5, 23
8000581c: 13 97 07 02  	slli	a4, a5, 32
80005820: 13 96 07 02  	slli	a2, a5, 32
80005824: 13 57 07 02  	srli	a4, a4, 32
80005828: 93 f6 f6 0f  	andi	a3, a3, 255
8000582c: 63 48 06 06  	bltz	a2, 0x8000589c <f32_classify+0x88>
80005830: 13 06 f0 0f  	li	a2, 255
80005834: 63 84 c6 04  	beq	a3, a2, 0x8000587c <f32_classify+0x68>
80005838: 13 05 00 04  	li	a0, 64
8000583c: 63 88 06 0a  	beqz	a3, 0x800058ec <f32_classify+0xd8>
80005840: 13 47 f7 ff  	not	a4, a4
80005844: b7 06 80 7f  	lui	a3, 522240
80005848: 33 77 d7 00  	and	a4, a4, a3
8000584c: 63 16 07 04  	bnez	a4, 0x80005898 <f32_classify+0x84>
80005850: 13 97 97 02  	slli	a4, a5, 41
80005854: 63 02 07 04  	beqz	a4, 0x80005898 <f32_classify+0x84>
80005858: 37 07 c0 7f  	lui	a4, 523264
8000585c: 33 f7 e7 00  	and	a4, a5, a4
80005860: 63 04 d7 06  	beq	a4, a3, 0x800058c8 <f32_classify+0xb4>
80005864: 37 07 c0 7f  	lui	a4, 523264
80005868: 33 f7 e7 00  	and	a4, a5, a4
8000586c: b7 06 80 7f  	lui	a3, 522240
80005870: 63 02 d7 06  	beq	a4, a3, 0x800058d4 <f32_classify+0xc0>
80005874: 13 65 05 20  	ori	a0, a0, 512
80005878: 67 80 00 00  	ret
8000587c: 13 95 97 02  	slli	a0, a5, 41
80005880: 13 47 f7 ff  	not	a4, a4
80005884: b7 06 80 7f  	lui	a3, 522240
80005888: 13 35 15 00  	seqz	a0, a0
8000588c: 33 77 d7 00  	and	a4, a4, a3
80005890: 13 15 75 00  	slli	a0, a0, 7
80005894: e3 0e 07 fa  	beqz	a4, 0x80005850 <f32_classify+0x3c>
80005898: 67 80 00 00  	ret
8000589c: 13 95 97 02  	slli	a0, a5, 41
800058a0: 13 06 f0 0f  	li	a2, 255
800058a4: 13 35 15 00  	seqz	a0, a0
800058a8: e3 8c c6 f8  	beq	a3, a2, 0x80005840 <f32_classify+0x2c>
800058ac: 13 05 20 00  	li	a0, 2
800058b0: e3 98 06 f8  	bnez	a3, 0x80005840 <f32_classify+0x2c>
800058b4: 93 96 97 02  	slli	a3, a5, 41
800058b8: 13 05 80 00  	li	a0, 8
800058bc: e3 82 06 f8  	beqz	a3, 0x80005840 <f32_classify+0x2c>
800058c0: 13 05 40 00  	li	a0, 4
800058c4: 6f f0 df f7  	j	0x80005840 <f32_classify+0x2c>
800058c8: 13 97 a7 02  	slli	a4, a5, 42
800058cc: e3 0c 07 f8  	beqz	a4, 0x80005864 <f32_classify+0x50>
800058d0: 13 65 05 10  	ori	a0, a0, 256
800058d4: 93 97 a7 02  	slli	a5, a5, 42
800058d8: 93 b7 17 00  	seqz	a5, a5
800058dc: 9b 97 97 00  	slliw	a5, a5, 9
800058e0: 33 65 f5 00  	or	a0, a0, a5
800058e4: 1b 05 05 00  	sext.w	a0, a0
800058e8: 67 80 00 00  	ret
800058ec: 13 96 97 02  	slli	a2, a5, 41
800058f0: 13 05 00 00  	li	a0, 0
800058f4: 93 56 96 02  	srli	a3, a2, 41
800058f8: 63 04 06 00  	beqz	a2, 0x80005900 <f32_classify+0xec>
800058fc: 13 65 05 02  	ori	a0, a0, 32
80005900: 93 b6 16 00  	seqz	a3, a3
80005904: 9b 96 46 00  	slliw	a3, a3, 4
80005908: 33 65 d5 00  	or	a0, a0, a3
8000590c: 1b 05 05 00  	sext.w	a0, a0
80005910: 6f f0 1f f3  	j	0x80005840 <f32_classify+0x2c>

0000000080005914 <f64_add>:
80005914: 13 56 f5 03  	srli	a2, a0, 63
80005918: 93 d7 f5 03  	srli	a5, a1, 63
8000591c: 17 23 00 00  	auipc	t1, 2
80005920: 13 03 83 2b  	addi	t1, t1, 696
80005924: 63 16 f6 00  	bne	a2, a5, 0x80005930 <f64_add+0x1c>
80005928: 17 13 00 00  	auipc	t1, 1
8000592c: 13 03 03 c4  	addi	t1, t1, -960
80005930: 67 00 03 00  	jr	t1

0000000080005934 <f64_div>:
80005934: 13 01 01 fc  	addi	sp, sp, -64
80005938: 23 30 21 03  	sd	s2, 32(sp)
8000593c: 93 07 f0 ff  	li	a5, -1
80005940: 13 59 45 03  	srli	s2, a0, 52
80005944: 93 d7 c7 00  	srli	a5, a5, 12
80005948: 23 38 81 02  	sd	s0, 48(sp)
8000594c: 23 34 91 02  	sd	s1, 40(sp)
80005950: 23 3c 31 01  	sd	s3, 24(sp)
80005954: 23 38 41 01  	sd	s4, 16(sp)
80005958: b3 c4 a5 00  	xor	s1, a1, a0
8000595c: 13 da 45 03  	srli	s4, a1, 52
80005960: 23 3c 11 02  	sd	ra, 56(sp)
80005964: 13 79 f9 7f  	andi	s2, s2, 2047
80005968: 13 07 f0 7f  	li	a4, 2047
8000596c: b3 79 f5 00  	and	s3, a0, a5
80005970: 13 7a fa 7f  	andi	s4, s4, 2047
80005974: 33 f4 f5 00  	and	s0, a1, a5
80005978: 93 d4 f4 03  	srli	s1, s1, 63
8000597c: 63 0a e9 06  	beq	s2, a4, 0x800059f0 <f64_div+0xbc>
80005980: 63 04 ea 04  	beq	s4, a4, 0x800059c8 <f64_div+0x94>
80005984: 63 1a 0a 0a  	bnez	s4, 0x80005a38 <f64_div+0x104>
80005988: 63 10 04 0a  	bnez	s0, 0x80005a28 <f64_div+0xf4>
8000598c: 33 69 39 01  	or	s2, s2, s3
80005990: 63 06 09 06  	beqz	s2, 0x800059fc <f64_div+0xc8>
80005994: f3 67 14 00  	csrrsi	a5, fflags, 8
80005998: 83 30 81 03  	ld	ra, 56(sp)
8000599c: 03 34 01 03  	ld	s0, 48(sp)
800059a0: 13 05 f0 7f  	li	a0, 2047
800059a4: 93 94 f4 03  	slli	s1, s1, 63
800059a8: 13 15 45 03  	slli	a0, a0, 52
800059ac: 03 39 01 02  	ld	s2, 32(sp)
800059b0: 83 39 81 01  	ld	s3, 24(sp)
800059b4: 03 3a 01 01  	ld	s4, 16(sp)
800059b8: 33 85 a4 00  	add	a0, s1, a0
800059bc: 83 34 81 02  	ld	s1, 40(sp)
800059c0: 13 01 01 04  	addi	sp, sp, 64
800059c4: 67 80 00 00  	ret
800059c8: 63 02 04 18  	beqz	s0, 0x80005b4c <f64_div+0x218>
800059cc: ef 20 00 4b  	jal	0x80007e7c <softfloat_propagateNaNF64UI>
800059d0: 83 30 81 03  	ld	ra, 56(sp)
800059d4: 03 34 01 03  	ld	s0, 48(sp)
800059d8: 83 34 81 02  	ld	s1, 40(sp)
800059dc: 03 39 01 02  	ld	s2, 32(sp)
800059e0: 83 39 81 01  	ld	s3, 24(sp)
800059e4: 03 3a 01 01  	ld	s4, 16(sp)
800059e8: 13 01 01 04  	addi	sp, sp, 64
800059ec: 67 80 00 00  	ret
800059f0: e3 9e 09 fc  	bnez	s3, 0x800059cc <f64_div+0x98>
800059f4: e3 12 2a fb  	bne	s4, s2, 0x80005998 <f64_div+0x64>
800059f8: e3 1a 04 fc  	bnez	s0, 0x800059cc <f64_div+0x98>
800059fc: f3 67 18 00  	csrrsi	a5, fflags, 16
80005a00: 83 30 81 03  	ld	ra, 56(sp)
80005a04: 03 34 01 03  	ld	s0, 48(sp)
80005a08: 37 f5 ff 00  	lui	a0, 4095
80005a0c: 83 34 81 02  	ld	s1, 40(sp)
80005a10: 03 39 01 02  	ld	s2, 32(sp)
80005a14: 83 39 81 01  	ld	s3, 24(sp)
80005a18: 03 3a 01 01  	ld	s4, 16(sp)
80005a1c: 13 15 75 02  	slli	a0, a0, 39
80005a20: 13 01 01 04  	addi	sp, sp, 64
80005a24: 67 80 00 00  	ret
80005a28: 13 05 04 00  	mv	a0, s0
80005a2c: ef 10 00 76  	jal	0x8000718c <softfloat_normSubnormalF64Sig>
80005a30: 13 0a 05 00  	mv	s4, a0
80005a34: 13 84 05 00  	mv	s0, a1
80005a38: 63 1c 09 00  	bnez	s2, 0x80005a50 <f64_div+0x11c>
80005a3c: 63 88 09 10  	beqz	s3, 0x80005b4c <f64_div+0x218>
80005a40: 13 85 09 00  	mv	a0, s3
80005a44: ef 10 80 74  	jal	0x8000718c <softfloat_normSubnormalF64Sig>
80005a48: 13 09 05 00  	mv	s2, a0
80005a4c: 93 89 05 00  	mv	s3, a1
80005a50: 93 07 10 00  	li	a5, 1
80005a54: 93 97 47 03  	slli	a5, a5, 52
80005a58: b3 e9 f9 00  	or	s3, s3, a5
80005a5c: 33 64 f4 00  	or	s0, s0, a5
80005a60: 33 09 49 41  	sub	s2, s2, s4
80005a64: 63 e6 89 10  	bltu	s3, s0, 0x80005b70 <f64_div+0x23c>
80005a68: 13 09 e9 3f  	addi	s2, s2, 1022
80005a6c: 93 99 a9 00  	slli	s3, s3, 10
80005a70: 13 14 b4 00  	slli	s0, s0, 11
80005a74: 13 55 04 42  	srai	a0, s0, 32
80005a78: ef 00 90 47  	jal	0x800066f0 <softfloat_approxRecip32_1>
80005a7c: 9b 07 e5 ff  	addiw	a5, a0, -2
80005a80: 13 95 07 02  	slli	a0, a5, 32
80005a84: 13 55 05 02  	srli	a0, a0, 32
80005a88: 13 d6 09 02  	srli	a2, s3, 32
80005a8c: 33 06 a6 02  	<unknown>
80005a90: 93 56 04 02  	srli	a3, s0, 32
80005a94: 1b 54 44 00  	srliw	s0, s0, 4
80005a98: 13 14 04 02  	slli	s0, s0, 32
80005a9c: 13 54 04 02  	srli	s0, s0, 32
80005aa0: 13 57 06 02  	srli	a4, a2, 32
80005aa4: 1b 17 17 00  	slliw	a4, a4, 1
80005aa8: 13 17 07 02  	slli	a4, a4, 32
80005aac: 13 57 07 02  	srli	a4, a4, 32
80005ab0: b3 87 e6 02  	<unknown>
80005ab4: 13 56 06 02  	srli	a2, a2, 32
80005ab8: 13 16 06 02  	slli	a2, a2, 32
80005abc: 33 07 87 02  	<unknown>
80005ac0: b3 89 f9 40  	sub	s3, s3, a5
80005ac4: 93 99 c9 01  	slli	s3, s3, 28
80005ac8: b3 89 e9 40  	sub	s3, s3, a4
80005acc: 93 d7 09 02  	srli	a5, s3, 32
80005ad0: b3 87 a7 02  	<unknown>
80005ad4: 93 d7 07 02  	srli	a5, a5, 32
80005ad8: 9b 87 47 00  	addiw	a5, a5, 4
80005adc: 13 97 07 02  	slli	a4, a5, 32
80005ae0: 13 57 c7 01  	srli	a4, a4, 28
80005ae4: 93 75 07 1c  	andi	a1, a4, 448
80005ae8: 33 06 e6 00  	add	a2, a2, a4
80005aec: 63 9c 05 02  	bnez	a1, 0x80005b24 <f64_div+0x1f0>
80005af0: 9b 97 17 00  	slliw	a5, a5, 1
80005af4: 93 f7 07 ff  	andi	a5, a5, -16
80005af8: 93 97 07 02  	slli	a5, a5, 32
80005afc: 93 d7 07 02  	srli	a5, a5, 32
80005b00: b3 86 f6 02  	<unknown>
80005b04: 13 76 06 f8  	andi	a2, a2, -128
80005b08: 33 04 f4 02  	<unknown>
80005b0c: b3 89 d9 40  	sub	s3, s3, a3
80005b10: 93 99 c9 01  	slli	s3, s3, 28
80005b14: 33 84 89 40  	sub	s0, s3, s0
80005b18: 63 42 04 06  	bltz	s0, 0x80005b7c <f64_div+0x248>
80005b1c: 63 04 04 00  	beqz	s0, 0x80005b24 <f64_div+0x1f0>
80005b20: 13 66 16 00  	ori	a2, a2, 1
80005b24: 03 34 01 03  	ld	s0, 48(sp)
80005b28: 83 30 81 03  	ld	ra, 56(sp)
80005b2c: 83 39 81 01  	ld	s3, 24(sp)
80005b30: 03 3a 01 01  	ld	s4, 16(sp)
80005b34: 93 05 09 00  	mv	a1, s2
80005b38: 13 85 04 00  	mv	a0, s1
80005b3c: 03 39 01 02  	ld	s2, 32(sp)
80005b40: 83 34 81 02  	ld	s1, 40(sp)
80005b44: 13 01 01 04  	addi	sp, sp, 64
80005b48: 6f 10 90 09  	j	0x800073e0 <softfloat_roundPackToF64>
80005b4c: 83 30 81 03  	ld	ra, 56(sp)
80005b50: 03 34 01 03  	ld	s0, 48(sp)
80005b54: 03 39 01 02  	ld	s2, 32(sp)
80005b58: 83 39 81 01  	ld	s3, 24(sp)
80005b5c: 03 3a 01 01  	ld	s4, 16(sp)
80005b60: 13 95 f4 03  	slli	a0, s1, 63
80005b64: 83 34 81 02  	ld	s1, 40(sp)
80005b68: 13 01 01 04  	addi	sp, sp, 64
80005b6c: 67 80 00 00  	ret
80005b70: 13 09 d9 3f  	addi	s2, s2, 1021
80005b74: 93 99 b9 00  	slli	s3, s3, 11
80005b78: 6f f0 9f ef  	j	0x80005a70 <f64_div+0x13c>
80005b7c: 13 06 06 f8  	addi	a2, a2, -128
80005b80: 6f f0 5f fa  	j	0x80005b24 <f64_div+0x1f0>

0000000080005b84 <f64_eq>:
80005b84: 93 06 f0 7f  	li	a3, 2047
80005b88: 13 47 f5 ff  	not	a4, a0
80005b8c: 93 96 46 03  	slli	a3, a3, 52
80005b90: 33 77 d7 00  	and	a4, a4, a3
80005b94: 93 07 05 00  	mv	a5, a0
80005b98: 63 16 07 00  	bnez	a4, 0x80005ba4 <f64_eq+0x20>
80005b9c: 13 17 c5 00  	slli	a4, a0, 12
80005ba0: 63 1c 07 02  	bnez	a4, 0x80005bd8 <f64_eq+0x54>
80005ba4: 93 06 f0 7f  	li	a3, 2047
80005ba8: 13 c7 f5 ff  	not	a4, a1
80005bac: 93 96 46 03  	slli	a3, a3, 52
80005bb0: 33 77 d7 00  	and	a4, a4, a3
80005bb4: 63 16 07 00  	bnez	a4, 0x80005bc0 <f64_eq+0x3c>
80005bb8: 13 97 c5 00  	slli	a4, a1, 12
80005bbc: 63 1e 07 00  	bnez	a4, 0x80005bd8 <f64_eq+0x54>
80005bc0: 13 05 10 00  	li	a0, 1
80005bc4: 63 88 b7 00  	beq	a5, a1, 0x80005bd4 <f64_eq+0x50>
80005bc8: 33 e5 b7 00  	or	a0, a5, a1
80005bcc: 13 15 15 00  	slli	a0, a0, 1
80005bd0: 13 35 15 00  	seqz	a0, a0
80005bd4: 67 80 00 00  	ret
80005bd8: 37 f7 ff 00  	lui	a4, 4095
80005bdc: 13 17 77 02  	slli	a4, a4, 39
80005be0: 93 06 f0 7f  	li	a3, 2047
80005be4: 33 f7 e7 00  	and	a4, a5, a4
80005be8: 93 96 46 03  	slli	a3, a3, 52
80005bec: 63 0a d7 02  	beq	a4, a3, 0x80005c20 <f64_eq+0x9c>
80005bf0: b7 f7 ff 00  	lui	a5, 4095
80005bf4: 93 97 77 02  	slli	a5, a5, 39
80005bf8: 13 07 f0 7f  	li	a4, 2047
80005bfc: b3 f7 f5 00  	and	a5, a1, a5
80005c00: 13 17 47 03  	slli	a4, a4, 52
80005c04: 13 05 00 00  	li	a0, 0
80005c08: e3 96 e7 fc  	bne	a5, a4, 0x80005bd4 <f64_eq+0x50>
80005c0c: 93 95 d5 00  	slli	a1, a1, 13
80005c10: e3 82 05 fc  	beqz	a1, 0x80005bd4 <f64_eq+0x50>
80005c14: f3 67 18 00  	csrrsi	a5, fflags, 16
80005c18: 13 05 00 00  	li	a0, 0
80005c1c: 67 80 00 00  	ret
80005c20: 13 97 d7 00  	slli	a4, a5, 13
80005c24: e3 18 07 fe  	bnez	a4, 0x80005c14 <f64_eq+0x90>
80005c28: 6f f0 9f fc  	j	0x80005bf0 <f64_eq+0x6c>

0000000080005c2c <f64_lt>:
80005c2c: 93 06 f0 7f  	li	a3, 2047
80005c30: 13 47 f5 ff  	not	a4, a0
80005c34: 93 96 46 03  	slli	a3, a3, 52
80005c38: 33 77 d7 00  	and	a4, a4, a3
80005c3c: 93 07 05 00  	mv	a5, a0
80005c40: 63 16 07 00  	bnez	a4, 0x80005c4c <f64_lt+0x20>
80005c44: 13 17 c5 00  	slli	a4, a0, 12
80005c48: 63 16 07 04  	bnez	a4, 0x80005c94 <f64_lt+0x68>
80005c4c: 93 06 f0 7f  	li	a3, 2047
80005c50: 13 c7 f5 ff  	not	a4, a1
80005c54: 93 96 46 03  	slli	a3, a3, 52
80005c58: 33 77 d7 00  	and	a4, a4, a3
80005c5c: 63 16 07 00  	bnez	a4, 0x80005c68 <f64_lt+0x3c>
80005c60: 13 97 c5 00  	slli	a4, a1, 12
80005c64: 63 18 07 02  	bnez	a4, 0x80005c94 <f64_lt+0x68>
80005c68: 13 d7 f7 03  	srli	a4, a5, 63
80005c6c: 93 d6 f5 03  	srli	a3, a1, 63
80005c70: 13 05 00 00  	li	a0, 0
80005c74: 63 06 d7 00  	beq	a4, a3, 0x80005c80 <f64_lt+0x54>
80005c78: 63 c4 07 02  	bltz	a5, 0x80005ca0 <f64_lt+0x74>
80005c7c: 67 80 00 00  	ret
80005c80: e3 8e b7 fe  	beq	a5, a1, 0x80005c7c <f64_lt+0x50>
80005c84: 33 b5 b7 00  	sltu	a0, a5, a1
80005c88: 33 05 e5 40  	sub	a0, a0, a4
80005c8c: 33 35 a0 00  	snez	a0, a0
80005c90: 67 80 00 00  	ret
80005c94: f3 67 18 00  	csrrsi	a5, fflags, 16
80005c98: 13 05 00 00  	li	a0, 0
80005c9c: 67 80 00 00  	ret
80005ca0: 33 e5 b7 00  	or	a0, a5, a1
80005ca4: 13 15 15 00  	slli	a0, a0, 1
80005ca8: 33 35 a0 00  	snez	a0, a0
80005cac: 67 80 00 00  	ret

0000000080005cb0 <f64_lt_quiet>:
80005cb0: 93 06 f0 7f  	li	a3, 2047
80005cb4: 13 47 f5 ff  	not	a4, a0
80005cb8: 93 96 46 03  	slli	a3, a3, 52
80005cbc: 33 77 d7 00  	and	a4, a4, a3
80005cc0: 93 07 05 00  	mv	a5, a0
80005cc4: 63 16 07 00  	bnez	a4, 0x80005cd0 <f64_lt_quiet+0x20>
80005cc8: 13 17 c5 00  	slli	a4, a0, 12
80005ccc: 63 16 07 04  	bnez	a4, 0x80005d18 <f64_lt_quiet+0x68>
80005cd0: 93 06 f0 7f  	li	a3, 2047
80005cd4: 13 c7 f5 ff  	not	a4, a1
80005cd8: 93 96 46 03  	slli	a3, a3, 52
80005cdc: 33 77 d7 00  	and	a4, a4, a3
80005ce0: 63 16 07 00  	bnez	a4, 0x80005cec <f64_lt_quiet+0x3c>
80005ce4: 13 97 c5 00  	slli	a4, a1, 12
80005ce8: 63 18 07 02  	bnez	a4, 0x80005d18 <f64_lt_quiet+0x68>
80005cec: 13 d7 f7 03  	srli	a4, a5, 63
80005cf0: 93 d6 f5 03  	srli	a3, a1, 63
80005cf4: 13 05 00 00  	li	a0, 0
80005cf8: 63 06 d7 00  	beq	a4, a3, 0x80005d04 <f64_lt_quiet+0x54>
80005cfc: 63 c2 07 06  	bltz	a5, 0x80005d60 <f64_lt_quiet+0xb0>
80005d00: 67 80 00 00  	ret
80005d04: e3 8e b7 fe  	beq	a5, a1, 0x80005d00 <f64_lt_quiet+0x50>
80005d08: 33 b5 b7 00  	sltu	a0, a5, a1
80005d0c: 33 05 e5 40  	sub	a0, a0, a4
80005d10: 33 35 a0 00  	snez	a0, a0
80005d14: 67 80 00 00  	ret
80005d18: 37 f7 ff 00  	lui	a4, 4095
80005d1c: 13 17 77 02  	slli	a4, a4, 39
80005d20: 93 06 f0 7f  	li	a3, 2047
80005d24: 33 f7 e7 00  	and	a4, a5, a4
80005d28: 93 96 46 03  	slli	a3, a3, 52
80005d2c: 63 02 d7 04  	beq	a4, a3, 0x80005d70 <f64_lt_quiet+0xc0>
80005d30: b7 f7 ff 00  	lui	a5, 4095
80005d34: 93 97 77 02  	slli	a5, a5, 39
80005d38: 13 07 f0 7f  	li	a4, 2047
80005d3c: b3 f7 f5 00  	and	a5, a1, a5
80005d40: 13 17 47 03  	slli	a4, a4, 52
80005d44: 13 05 00 00  	li	a0, 0
80005d48: e3 9c e7 fa  	bne	a5, a4, 0x80005d00 <f64_lt_quiet+0x50>
80005d4c: 93 95 d5 00  	slli	a1, a1, 13
80005d50: e3 88 05 fa  	beqz	a1, 0x80005d00 <f64_lt_quiet+0x50>
80005d54: f3 67 18 00  	csrrsi	a5, fflags, 16
80005d58: 13 05 00 00  	li	a0, 0
80005d5c: 67 80 00 00  	ret
80005d60: 33 e5 b7 00  	or	a0, a5, a1
80005d64: 13 15 15 00  	slli	a0, a0, 1
80005d68: 33 35 a0 00  	snez	a0, a0
80005d6c: 67 80 00 00  	ret
80005d70: 13 97 d7 00  	slli	a4, a5, 13
80005d74: e3 10 07 fe  	bnez	a4, 0x80005d54 <f64_lt_quiet+0xa4>
80005d78: 6f f0 9f fb  	j	0x80005d30 <f64_lt_quiet+0x80>

0000000080005d7c <f64_mul>:
80005d7c: 13 01 01 fb  	addi	sp, sp, -80
80005d80: 23 3c 91 02  	sd	s1, 56(sp)
80005d84: 93 07 f0 ff  	li	a5, -1
80005d88: 93 54 45 03  	srli	s1, a0, 52
80005d8c: 93 d7 c7 00  	srli	a5, a5, 12
80005d90: 23 30 81 04  	sd	s0, 64(sp)
80005d94: 23 38 21 03  	sd	s2, 48(sp)
80005d98: 23 34 31 03  	sd	s3, 40(sp)
80005d9c: 23 30 41 03  	sd	s4, 32(sp)
80005da0: 13 d9 45 03  	srli	s2, a1, 52
80005da4: b3 c6 a5 00  	xor	a3, a1, a0
80005da8: 23 34 11 04  	sd	ra, 72(sp)
80005dac: 93 f4 f4 7f  	andi	s1, s1, 2047
80005db0: 13 07 f0 7f  	li	a4, 2047
80005db4: b3 79 f5 00  	and	s3, a0, a5
80005db8: 13 79 f9 7f  	andi	s2, s2, 2047
80005dbc: 33 f4 f5 00  	and	s0, a1, a5
80005dc0: 13 da f6 03  	srli	s4, a3, 63
80005dc4: 63 8e e4 04  	beq	s1, a4, 0x80005e20 <f64_mul+0xa4>
80005dc8: 63 08 e9 02  	beq	s2, a4, 0x80005df8 <f64_mul+0x7c>
80005dcc: 63 92 04 0a  	bnez	s1, 0x80005e70 <f64_mul+0xf4>
80005dd0: 63 98 09 08  	bnez	s3, 0x80005e60 <f64_mul+0xe4>
80005dd4: 83 30 81 04  	ld	ra, 72(sp)
80005dd8: 03 34 01 04  	ld	s0, 64(sp)
80005ddc: 83 34 81 03  	ld	s1, 56(sp)
80005de0: 03 39 01 03  	ld	s2, 48(sp)
80005de4: 83 39 81 02  	ld	s3, 40(sp)
80005de8: 13 15 fa 03  	slli	a0, s4, 63
80005dec: 03 3a 01 02  	ld	s4, 32(sp)
80005df0: 13 01 01 05  	addi	sp, sp, 80
80005df4: 67 80 00 00  	ret
80005df8: 63 08 04 10  	beqz	s0, 0x80005f08 <f64_mul+0x18c>
80005dfc: ef 20 00 08  	jal	0x80007e7c <softfloat_propagateNaNF64UI>
80005e00: 83 30 81 04  	ld	ra, 72(sp)
80005e04: 03 34 01 04  	ld	s0, 64(sp)
80005e08: 83 34 81 03  	ld	s1, 56(sp)
80005e0c: 03 39 01 03  	ld	s2, 48(sp)
80005e10: 83 39 81 02  	ld	s3, 40(sp)
80005e14: 03 3a 01 02  	ld	s4, 32(sp)
80005e18: 13 01 01 05  	addi	sp, sp, 80
80005e1c: 67 80 00 00  	ret
80005e20: e3 9e 09 fc  	bnez	s3, 0x80005dfc <f64_mul+0x80>
80005e24: 63 14 99 00  	bne	s2, s1, 0x80005e2c <f64_mul+0xb0>
80005e28: e3 1a 04 fc  	bnez	s0, 0x80005dfc <f64_mul+0x80>
80005e2c: b3 65 89 00  	or	a1, s2, s0
80005e30: 63 90 05 0e  	bnez	a1, 0x80005f10 <f64_mul+0x194>
80005e34: f3 67 18 00  	csrrsi	a5, fflags, 16
80005e38: 83 30 81 04  	ld	ra, 72(sp)
80005e3c: 03 34 01 04  	ld	s0, 64(sp)
80005e40: 37 f5 ff 00  	lui	a0, 4095
80005e44: 83 34 81 03  	ld	s1, 56(sp)
80005e48: 03 39 01 03  	ld	s2, 48(sp)
80005e4c: 83 39 81 02  	ld	s3, 40(sp)
80005e50: 03 3a 01 02  	ld	s4, 32(sp)
80005e54: 13 15 75 02  	slli	a0, a0, 39
80005e58: 13 01 01 05  	addi	sp, sp, 80
80005e5c: 67 80 00 00  	ret
80005e60: 13 85 09 00  	mv	a0, s3
80005e64: ef 10 80 32  	jal	0x8000718c <softfloat_normSubnormalF64Sig>
80005e68: 93 04 05 00  	mv	s1, a0
80005e6c: 93 89 05 00  	mv	s3, a1
80005e70: 63 1c 09 00  	bnez	s2, 0x80005e88 <f64_mul+0x10c>
80005e74: e3 00 04 f6  	beqz	s0, 0x80005dd4 <f64_mul+0x58>
80005e78: 13 05 04 00  	mv	a0, s0
80005e7c: ef 10 00 31  	jal	0x8000718c <softfloat_normSubnormalF64Sig>
80005e80: 13 09 05 00  	mv	s2, a0
80005e84: 13 84 05 00  	mv	s0, a1
80005e88: 93 05 f0 ff  	li	a1, -1
80005e8c: 13 05 10 00  	li	a0, 1
80005e90: 93 99 a9 00  	slli	s3, s3, 10
80005e94: 13 14 b4 00  	slli	s0, s0, 11
80005e98: 93 95 f5 03  	slli	a1, a1, 63
80005e9c: 13 15 e5 03  	slli	a0, a0, 62
80005ea0: 13 06 01 01  	addi	a2, sp, 16
80005ea4: b3 65 b4 00  	or	a1, s0, a1
80005ea8: 33 e5 a9 00  	or	a0, s3, a0
80005eac: ef 00 d0 1b  	jal	0x80006868 <softfloat_mul64To128M>
80005eb0: 83 27 41 01  	lw	a5, 20(sp)
80005eb4: 03 27 01 01  	lw	a4, 16(sp)
80005eb8: 03 36 81 01  	ld	a2, 24(sp)
80005ebc: b3 85 24 01  	add	a1, s1, s2
80005ec0: b3 e7 e7 00  	or	a5, a5, a4
80005ec4: 9b 87 07 00  	sext.w	a5, a5
80005ec8: 63 84 07 00  	beqz	a5, 0x80005ed0 <f64_mul+0x154>
80005ecc: 13 66 16 00  	ori	a2, a2, 1
80005ed0: 93 07 f0 ff  	li	a5, -1
80005ed4: 93 d7 27 00  	srli	a5, a5, 2
80005ed8: 63 f4 c7 06  	bgeu	a5, a2, 0x80005f40 <f64_mul+0x1c4>
80005edc: 93 85 15 c0  	addi	a1, a1, -1023
80005ee0: 13 05 0a 00  	mv	a0, s4
80005ee4: ef 10 c0 4f  	jal	0x800073e0 <softfloat_roundPackToF64>
80005ee8: 83 30 81 04  	ld	ra, 72(sp)
80005eec: 03 34 01 04  	ld	s0, 64(sp)
80005ef0: 83 34 81 03  	ld	s1, 56(sp)
80005ef4: 03 39 01 03  	ld	s2, 48(sp)
80005ef8: 83 39 81 02  	ld	s3, 40(sp)
80005efc: 03 3a 01 02  	ld	s4, 32(sp)
80005f00: 13 01 01 05  	addi	sp, sp, 80
80005f04: 67 80 00 00  	ret
80005f08: b3 e5 34 01  	or	a1, s1, s3
80005f0c: e3 84 05 f2  	beqz	a1, 0x80005e34 <f64_mul+0xb8>
80005f10: 83 30 81 04  	ld	ra, 72(sp)
80005f14: 03 34 01 04  	ld	s0, 64(sp)
80005f18: 93 07 f0 7f  	li	a5, 2047
80005f1c: 13 15 fa 03  	slli	a0, s4, 63
80005f20: 93 97 47 03  	slli	a5, a5, 52
80005f24: 83 34 81 03  	ld	s1, 56(sp)
80005f28: 03 39 01 03  	ld	s2, 48(sp)
80005f2c: 83 39 81 02  	ld	s3, 40(sp)
80005f30: 03 3a 01 02  	ld	s4, 32(sp)
80005f34: 33 05 f5 00  	add	a0, a0, a5
80005f38: 13 01 01 05  	addi	sp, sp, 80
80005f3c: 67 80 00 00  	ret
80005f40: 93 85 05 c0  	addi	a1, a1, -1024
80005f44: 13 16 16 00  	slli	a2, a2, 1
80005f48: 6f f0 9f f9  	j	0x80005ee0 <f64_mul+0x164>

0000000080005f4c <f64_sqrt>:
80005f4c: 13 01 01 fc  	addi	sp, sp, -64
80005f50: 13 57 45 03  	srli	a4, a0, 52
80005f54: 93 15 c5 00  	slli	a1, a0, 12
80005f58: 23 3c 11 02  	sd	ra, 56(sp)
80005f5c: 23 38 81 02  	sd	s0, 48(sp)
80005f60: 23 34 91 02  	sd	s1, 40(sp)
80005f64: 23 30 21 03  	sd	s2, 32(sp)
80005f68: 23 3c 31 01  	sd	s3, 24(sp)
80005f6c: 13 77 f7 7f  	andi	a4, a4, 2047
80005f70: 93 06 f0 7f  	li	a3, 2047
80005f74: 93 07 05 00  	mv	a5, a0
80005f78: 93 d5 c5 00  	srli	a1, a1, 12
80005f7c: 63 00 d7 06  	beq	a4, a3, 0x80005fdc <f64_sqrt+0x90>
80005f80: 63 46 05 02  	bltz	a0, 0x80005fac <f64_sqrt+0x60>
80005f84: 63 1e 07 06  	bnez	a4, 0x80006000 <f64_sqrt+0xb4>
80005f88: 63 96 05 06  	bnez	a1, 0x80005ff4 <f64_sqrt+0xa8>
80005f8c: 13 85 07 00  	mv	a0, a5
80005f90: 83 30 81 03  	ld	ra, 56(sp)
80005f94: 03 34 01 03  	ld	s0, 48(sp)
80005f98: 83 34 81 02  	ld	s1, 40(sp)
80005f9c: 03 39 01 02  	ld	s2, 32(sp)
80005fa0: 83 39 81 01  	ld	s3, 24(sp)
80005fa4: 13 01 01 04  	addi	sp, sp, 64
80005fa8: 67 80 00 00  	ret
80005fac: 33 67 b7 00  	or	a4, a4, a1
80005fb0: e3 0e 07 fc  	beqz	a4, 0x80005f8c <f64_sqrt+0x40>
80005fb4: f3 67 18 00  	csrrsi	a5, fflags, 16
80005fb8: 37 f5 ff 00  	lui	a0, 4095
80005fbc: 13 15 75 02  	slli	a0, a0, 39
80005fc0: 83 30 81 03  	ld	ra, 56(sp)
80005fc4: 03 34 01 03  	ld	s0, 48(sp)
80005fc8: 83 34 81 02  	ld	s1, 40(sp)
80005fcc: 03 39 01 02  	ld	s2, 32(sp)
80005fd0: 83 39 81 01  	ld	s3, 24(sp)
80005fd4: 13 01 01 04  	addi	sp, sp, 64
80005fd8: 67 80 00 00  	ret
80005fdc: 63 9c 05 0e  	bnez	a1, 0x800060d4 <f64_sqrt+0x188>
80005fe0: e3 56 05 fa  	bgez	a0, 0x80005f8c <f64_sqrt+0x40>
80005fe4: f3 67 18 00  	csrrsi	a5, fflags, 16
80005fe8: 37 f5 ff 00  	lui	a0, 4095
80005fec: 13 15 75 02  	slli	a0, a0, 39
80005ff0: 6f f0 1f fd  	j	0x80005fc0 <f64_sqrt+0x74>
80005ff4: 13 85 05 00  	mv	a0, a1
80005ff8: ef 10 40 19  	jal	0x8000718c <softfloat_normSubnormalF64Sig>
80005ffc: 13 07 05 00  	mv	a4, a0
80006000: 93 04 10 00  	li	s1, 1
80006004: 93 94 44 03  	slli	s1, s1, 52
80006008: b3 e4 95 00  	or	s1, a1, s1
8000600c: 13 d9 54 01  	srli	s2, s1, 21
80006010: 13 75 17 00  	andi	a0, a4, 1
80006014: 9b 05 09 00  	sext.w	a1, s2
80006018: 93 09 17 c0  	addi	s3, a4, -1023
8000601c: 13 04 05 00  	mv	s0, a0
80006020: ef 00 80 76  	jal	0x80006788 <softfloat_approxRecipSqrt32_1>
80006024: 13 15 05 02  	slli	a0, a0, 32
80006028: 13 19 09 02  	slli	s2, s2, 32
8000602c: 13 55 05 02  	srli	a0, a0, 32
80006030: 13 59 09 02  	srli	s2, s2, 32
80006034: 33 09 a9 02  	<unknown>
80006038: 93 d9 19 40  	srai	s3, s3, 1
8000603c: 93 89 e9 3f  	addi	s3, s3, 1022
80006040: 13 97 94 00  	slli	a4, s1, 9
80006044: 93 57 09 02  	srli	a5, s2, 32
80006048: 13 59 09 42  	srai	s2, s2, 32
8000604c: 63 06 04 00  	beqz	s0, 0x80006058 <f64_sqrt+0x10c>
80006050: 13 97 84 00  	slli	a4, s1, 8
80006054: 9b 57 19 00  	srliw	a5, s2, 1
80006058: 33 86 f7 02  	<unknown>
8000605c: 93 97 07 02  	slli	a5, a5, 32
80006060: 93 e7 07 02  	ori	a5, a5, 32
80006064: 93 06 10 02  	li	a3, 33
80006068: 33 06 c7 40  	sub	a2, a4, a2
8000606c: 13 56 26 00  	srli	a2, a2, 2
80006070: 13 16 06 02  	slli	a2, a2, 32
80006074: 13 56 06 02  	srli	a2, a2, 32
80006078: 33 06 a6 02  	<unknown>
8000607c: 13 56 06 02  	srli	a2, a2, 32
80006080: 13 16 36 00  	slli	a2, a2, 3
80006084: 33 06 f6 00  	add	a2, a2, a5
80006088: 93 77 f6 1f  	andi	a5, a2, 511
8000608c: 63 e2 f6 02  	bltu	a3, a5, 0x800060b0 <f64_sqrt+0x164>
80006090: 13 76 06 fc  	andi	a2, a2, -64
80006094: 93 57 66 00  	srli	a5, a2, 6
80006098: b3 87 f7 02  	<unknown>
8000609c: 13 17 47 03  	slli	a4, a4, 52
800060a0: 33 07 f7 40  	sub	a4, a4, a5
800060a4: 63 4e 07 02  	bltz	a4, 0x800060e0 <f64_sqrt+0x194>
800060a8: 63 04 07 00  	beqz	a4, 0x800060b0 <f64_sqrt+0x164>
800060ac: 13 66 16 00  	ori	a2, a2, 1
800060b0: 03 34 01 03  	ld	s0, 48(sp)
800060b4: 83 30 81 03  	ld	ra, 56(sp)
800060b8: 83 34 81 02  	ld	s1, 40(sp)
800060bc: 03 39 01 02  	ld	s2, 32(sp)
800060c0: 93 85 09 00  	mv	a1, s3
800060c4: 83 39 81 01  	ld	s3, 24(sp)
800060c8: 13 05 00 00  	li	a0, 0
800060cc: 13 01 01 04  	addi	sp, sp, 64
800060d0: 6f 10 00 31  	j	0x800073e0 <softfloat_roundPackToF64>
800060d4: 93 05 00 00  	li	a1, 0
800060d8: ef 10 50 5a  	jal	0x80007e7c <softfloat_propagateNaNF64UI>
800060dc: 6f f0 5f eb  	j	0x80005f90 <f64_sqrt+0x44>
800060e0: 13 06 f6 ff  	addi	a2, a2, -1
800060e4: 6f f0 df fc  	j	0x800060b0 <f64_sqrt+0x164>

00000000800060e8 <f64_to_f32>:
800060e8: 13 01 01 fe  	addi	sp, sp, -32
800060ec: 23 38 81 00  	sd	s0, 16(sp)
800060f0: 13 54 45 03  	srli	s0, a0, 52
800060f4: 93 07 05 00  	mv	a5, a0
800060f8: 23 34 91 00  	sd	s1, 8(sp)
800060fc: 13 15 c5 00  	slli	a0, a0, 12
80006100: 23 3c 11 00  	sd	ra, 24(sp)
80006104: 13 74 f4 7f  	andi	s0, s0, 2047
80006108: 13 07 f0 7f  	li	a4, 2047
8000610c: 93 d4 f7 03  	srli	s1, a5, 63
80006110: 13 55 c5 00  	srli	a0, a0, 12
80006114: 63 08 e4 04  	beq	s0, a4, 0x80006164 <f64_to_f32+0x7c>
80006118: 93 05 60 01  	li	a1, 22
8000611c: ef 10 80 77  	jal	0x80007894 <softfloat_shortShiftRightJam64>
80006120: b3 67 a4 00  	or	a5, s0, a0
80006124: 63 9e 07 00  	bnez	a5, 0x80006140 <f64_to_f32+0x58>
80006128: 1b 95 f4 01  	slliw	a0, s1, 31
8000612c: 83 30 81 01  	ld	ra, 24(sp)
80006130: 03 34 01 01  	ld	s0, 16(sp)
80006134: 83 34 81 00  	ld	s1, 8(sp)
80006138: 13 01 01 02  	addi	sp, sp, 32
8000613c: 67 80 00 00  	ret
80006140: 37 06 00 40  	lui	a2, 262144
80006144: 93 05 f4 c7  	addi	a1, s0, -897
80006148: 03 34 01 01  	ld	s0, 16(sp)
8000614c: 83 30 81 01  	ld	ra, 24(sp)
80006150: 33 66 c5 00  	or	a2, a0, a2
80006154: 13 85 04 00  	mv	a0, s1
80006158: 83 34 81 00  	ld	s1, 8(sp)
8000615c: 13 01 01 02  	addi	sp, sp, 32
80006160: 6f 10 c0 11  	j	0x8000727c <softfloat_roundPackToF32>
80006164: 63 0c 05 00  	beqz	a0, 0x8000617c <f64_to_f32+0x94>
80006168: 13 97 c7 00  	slli	a4, a5, 12
8000616c: 37 05 c0 7f  	lui	a0, 523264
80006170: e3 4e 07 fa  	bltz	a4, 0x8000612c <f64_to_f32+0x44>
80006174: f3 67 18 00  	csrrsi	a5, fflags, 16
80006178: 6f f0 5f fb  	j	0x8000612c <f64_to_f32+0x44>
8000617c: 83 30 81 01  	ld	ra, 24(sp)
80006180: 03 34 01 01  	ld	s0, 16(sp)
80006184: 9b 94 f4 01  	slliw	s1, s1, 31
80006188: 37 05 80 7f  	lui	a0, 522240
8000618c: 3b 85 a4 00  	addw	a0, s1, a0
80006190: 83 34 81 00  	ld	s1, 8(sp)
80006194: 13 01 01 02  	addi	sp, sp, 32
80006198: 67 80 00 00  	ret

000000008000619c <f64_to_ui64>:
8000619c: 13 01 01 fc  	addi	sp, sp, -64
800061a0: 93 07 05 00  	mv	a5, a0
800061a4: 13 55 45 03  	srli	a0, a0, 52
800061a8: 23 38 81 02  	sd	s0, 48(sp)
800061ac: 23 34 91 02  	sd	s1, 40(sp)
800061b0: 23 3c 31 01  	sd	s3, 24(sp)
800061b4: 13 75 f5 7f  	andi	a0, a0, 2047
800061b8: 13 98 c7 00  	slli	a6, a5, 12
800061bc: 13 07 30 43  	li	a4, 1075
800061c0: 23 3c 11 02  	sd	ra, 56(sp)
800061c4: 23 30 21 03  	sd	s2, 32(sp)
800061c8: 23 20 01 00  	sw	zero, 0(sp)
800061cc: 93 04 06 00  	mv	s1, a2
800061d0: 13 84 05 00  	mv	s0, a1
800061d4: 93 d9 f7 03  	srli	s3, a5, 63
800061d8: 13 58 c8 00  	srli	a6, a6, 12
800061dc: 33 06 a7 40  	sub	a2, a4, a0
800061e0: 63 1a 05 04  	bnez	a0, 0x80006234 <f64_to_ui64+0x98>
800061e4: 13 09 01 00  	mv	s2, sp
800061e8: 93 57 08 02  	srli	a5, a6, 32
800061ec: 93 06 09 00  	mv	a3, s2
800061f0: 93 05 09 00  	mv	a1, s2
800061f4: 13 05 30 00  	li	a0, 3
800061f8: 23 24 f1 00  	sw	a5, 8(sp)
800061fc: 23 22 01 01  	sw	a6, 4(sp)
80006200: ef 10 00 47  	jal	0x80007670 <softfloat_shiftRightJamM>
80006204: 93 86 04 00  	mv	a3, s1
80006208: 13 06 04 00  	mv	a2, s0
8000620c: 93 05 09 00  	mv	a1, s2
80006210: 13 85 09 00  	mv	a0, s3
80006214: ef 00 50 7b  	jal	0x800071c8 <softfloat_roundMToUI64>
80006218: 83 30 81 03  	ld	ra, 56(sp)
8000621c: 03 34 01 03  	ld	s0, 48(sp)
80006220: 83 34 81 02  	ld	s1, 40(sp)
80006224: 03 39 01 02  	ld	s2, 32(sp)
80006228: 83 39 81 01  	ld	s3, 24(sp)
8000622c: 13 01 01 04  	addi	sp, sp, 64
80006230: 67 80 00 00  	ret
80006234: 13 07 10 00  	li	a4, 1
80006238: 13 17 47 03  	slli	a4, a4, 52
8000623c: 33 67 e8 00  	or	a4, a6, a4
80006240: 63 42 c0 06  	bgtz	a2, 0x800062a4 <f64_to_ui64+0x108>
80006244: 93 06 50 ff  	li	a3, -11
80006248: 63 40 d6 02  	blt	a2, a3, 0x80006268 <f64_to_ui64+0xcc>
8000624c: bb 07 c0 40  	negw	a5, a2
80006250: b3 17 f7 00  	sll	a5, a4, a5
80006254: 13 d7 07 02  	srli	a4, a5, 32
80006258: 23 24 e1 00  	sw	a4, 8(sp)
8000625c: 23 22 f1 00  	sw	a5, 4(sp)
80006260: 13 09 01 00  	mv	s2, sp
80006264: 6f f0 1f fa  	j	0x80006204 <f64_to_ui64+0x68>
80006268: 73 67 18 00  	csrrsi	a4, fflags, 16
8000626c: 13 07 f0 7f  	li	a4, 2047
80006270: 63 04 e5 02  	beq	a0, a4, 0x80006298 <f64_to_ui64+0xfc>
80006274: 83 30 81 03  	ld	ra, 56(sp)
80006278: 03 34 01 03  	ld	s0, 48(sp)
8000627c: 13 c5 f7 ff  	not	a0, a5
80006280: 83 34 81 02  	ld	s1, 40(sp)
80006284: 03 39 01 02  	ld	s2, 32(sp)
80006288: 83 39 81 01  	ld	s3, 24(sp)
8000628c: 13 55 f5 43  	srai	a0, a0, 63
80006290: 13 01 01 04  	addi	sp, sp, 64
80006294: 67 80 00 00  	ret
80006298: 13 05 f0 ff  	li	a0, -1
8000629c: e3 0c 08 fc  	beqz	a6, 0x80006274 <f64_to_ui64+0xd8>
800062a0: 6f f0 9f f7  	j	0x80006218 <f64_to_ui64+0x7c>
800062a4: 13 08 07 00  	mv	a6, a4
800062a8: 6f f0 df f3  	j	0x800061e4 <f64_to_ui64+0x48>

00000000800062ac <f64_classify>:
800062ac: 13 57 45 03  	srli	a4, a0, 52
800062b0: 93 07 05 00  	mv	a5, a0
800062b4: 13 77 f7 7f  	andi	a4, a4, 2047
800062b8: 93 06 f0 7f  	li	a3, 2047
800062bc: 63 40 05 08  	bltz	a0, 0x8000633c <f64_classify+0x90>
800062c0: 63 0c d7 04  	beq	a4, a3, 0x80006318 <f64_classify+0x6c>
800062c4: 13 05 00 04  	li	a0, 64
800062c8: 63 04 07 0c  	beqz	a4, 0x80006390 <f64_classify+0xe4>
800062cc: 93 06 f0 7f  	li	a3, 2047
800062d0: 13 c7 f7 ff  	not	a4, a5
800062d4: 93 96 46 03  	slli	a3, a3, 52
800062d8: 33 77 d7 00  	and	a4, a4, a3
800062dc: 63 1e 07 04  	bnez	a4, 0x80006338 <f64_classify+0x8c>
800062e0: 13 97 c7 00  	slli	a4, a5, 12
800062e4: 63 0a 07 04  	beqz	a4, 0x80006338 <f64_classify+0x8c>
800062e8: 37 f7 ff 00  	lui	a4, 4095
800062ec: 13 17 77 02  	slli	a4, a4, 39
800062f0: 33 f7 e7 00  	and	a4, a5, a4
800062f4: 63 08 d7 06  	beq	a4, a3, 0x80006364 <f64_classify+0xb8>
800062f8: 37 f7 ff 00  	lui	a4, 4095
800062fc: 13 17 77 02  	slli	a4, a4, 39
80006300: 93 06 f0 7f  	li	a3, 2047
80006304: 33 f7 e7 00  	and	a4, a5, a4
80006308: 93 96 46 03  	slli	a3, a3, 52
8000630c: 63 06 d7 06  	beq	a4, a3, 0x80006378 <f64_classify+0xcc>
80006310: 13 65 05 20  	ori	a0, a0, 512
80006314: 67 80 00 00  	ret
80006318: 93 06 f0 7f  	li	a3, 2047
8000631c: 13 15 c5 00  	slli	a0, a0, 12
80006320: 13 c7 f7 ff  	not	a4, a5
80006324: 93 96 46 03  	slli	a3, a3, 52
80006328: 13 35 15 00  	seqz	a0, a0
8000632c: 33 77 d7 00  	and	a4, a4, a3
80006330: 13 15 75 00  	slli	a0, a0, 7
80006334: e3 06 07 fa  	beqz	a4, 0x800062e0 <f64_classify+0x34>
80006338: 67 80 00 00  	ret
8000633c: 13 15 c5 00  	slli	a0, a0, 12
80006340: 13 35 15 00  	seqz	a0, a0
80006344: e3 04 d7 f8  	beq	a4, a3, 0x800062cc <f64_classify+0x20>
80006348: 13 05 20 00  	li	a0, 2
8000634c: e3 10 07 f8  	bnez	a4, 0x800062cc <f64_classify+0x20>
80006350: 13 97 c7 00  	slli	a4, a5, 12
80006354: 13 05 80 00  	li	a0, 8
80006358: e3 0a 07 f6  	beqz	a4, 0x800062cc <f64_classify+0x20>
8000635c: 13 05 40 00  	li	a0, 4
80006360: 6f f0 df f6  	j	0x800062cc <f64_classify+0x20>
80006364: 13 07 f0 ff  	li	a4, -1
80006368: 13 57 d7 00  	srli	a4, a4, 13
8000636c: 33 f7 e7 00  	and	a4, a5, a4
80006370: e3 04 07 f8  	beqz	a4, 0x800062f8 <f64_classify+0x4c>
80006374: 13 65 05 10  	ori	a0, a0, 256
80006378: 93 97 d7 00  	slli	a5, a5, 13
8000637c: 93 b7 17 00  	seqz	a5, a5
80006380: 9b 97 97 00  	slliw	a5, a5, 9
80006384: 33 65 f5 00  	or	a0, a0, a5
80006388: 1b 05 05 00  	sext.w	a0, a0
8000638c: 67 80 00 00  	ret
80006390: 93 96 c7 00  	slli	a3, a5, 12
80006394: 13 05 00 00  	li	a0, 0
80006398: 13 d7 c6 00  	srli	a4, a3, 12
8000639c: 63 84 06 00  	beqz	a3, 0x800063a4 <f64_classify+0xf8>
800063a0: 13 65 05 02  	ori	a0, a0, 32
800063a4: 13 37 17 00  	seqz	a4, a4
800063a8: 1b 17 47 00  	slliw	a4, a4, 4
800063ac: 33 65 e5 00  	or	a0, a0, a4
800063b0: 1b 05 05 00  	sext.w	a0, a0
800063b4: 6f f0 9f f1  	j	0x800062cc <f64_classify+0x20>

00000000800063b8 <softfloat_addMagsF32>:
800063b8: 13 01 01 fd  	addi	sp, sp, -48
800063bc: 23 30 81 02  	sd	s0, 32(sp)
800063c0: 23 3c 91 00  	sd	s1, 24(sp)
800063c4: 13 54 75 01  	srli	s0, a0, 23
800063c8: 93 d4 75 01  	srli	s1, a1, 23
800063cc: b7 07 80 00  	lui	a5, 2048
800063d0: 93 87 f7 ff  	addi	a5, a5, -1
800063d4: 13 74 f4 0f  	andi	s0, s0, 255
800063d8: 93 f4 f4 0f  	andi	s1, s1, 255
800063dc: 23 34 11 02  	sd	ra, 40(sp)
800063e0: 23 38 21 01  	sd	s2, 16(sp)
800063e4: 23 34 31 01  	sd	s3, 8(sp)
800063e8: 23 30 41 01  	sd	s4, 0(sp)
800063ec: 33 76 f5 00  	and	a2, a0, a5
800063f0: 33 f7 f5 00  	and	a4, a1, a5
800063f4: b3 06 94 40  	sub	a3, s0, s1
800063f8: 63 14 94 04  	bne	s0, s1, 0x80006440 <softfloat_addMagsF32+0x88>
800063fc: 63 06 04 0e  	beqz	s0, 0x800064e8 <softfloat_addMagsF32+0x130>
80006400: 93 06 f0 0f  	li	a3, 255
80006404: 63 08 d4 14  	beq	s0, a3, 0x80006554 <softfloat_addMagsF32+0x19c>
80006408: b7 07 00 01  	lui	a5, 4096
8000640c: 33 07 f7 00  	add	a4, a4, a5
80006410: 33 06 c7 00  	add	a2, a4, a2
80006414: 93 77 16 00  	andi	a5, a2, 1
80006418: 1b 5a f5 01  	srliw	s4, a0, 31
8000641c: 63 98 07 0e  	bnez	a5, 0x8000650c <softfloat_addMagsF32+0x154>
80006420: 93 07 e0 0f  	li	a5, 254
80006424: 63 04 f4 0e  	beq	s0, a5, 0x8000650c <softfloat_addMagsF32+0x154>
80006428: 1b 15 fa 01  	slliw	a0, s4, 31
8000642c: 1b 14 74 01  	slliw	s0, s0, 23
80006430: 3b 05 85 00  	addw	a0, a0, s0
80006434: 13 56 16 00  	srli	a2, a2, 1
80006438: 3b 05 c5 00  	addw	a0, a0, a2
8000643c: 6f 00 00 0b  	j	0x800064ec <softfloat_addMagsF32+0x134>
80006440: 1b 5a f5 01  	srliw	s4, a0, 31
80006444: 13 19 66 00  	slli	s2, a2, 6
80006448: 93 19 67 00  	slli	s3, a4, 6
8000644c: 93 07 f0 0f  	li	a5, 255
80006450: 63 c6 06 06  	bltz	a3, 0x800064bc <softfloat_addMagsF32+0x104>
80006454: 63 00 f4 0c  	beq	s0, a5, 0x80006514 <softfloat_addMagsF32+0x15c>
80006458: 37 05 00 20  	lui	a0, 131072
8000645c: 63 94 04 00  	bnez	s1, 0x80006464 <softfloat_addMagsF32+0xac>
80006460: 13 85 09 00  	mv	a0, s3
80006464: 3b 05 35 01  	addw	a0, a0, s3
80006468: 93 85 06 00  	mv	a1, a3
8000646c: ef 10 00 1b  	jal	0x8000761c <softfloat_shiftRightJam32>
80006470: 93 19 05 02  	slli	s3, a0, 32
80006474: 93 d9 09 02  	srli	s3, s3, 32
80006478: 33 06 39 01  	add	a2, s2, s3
8000647c: 37 05 00 20  	lui	a0, 131072
80006480: 33 06 a6 00  	add	a2, a2, a0
80006484: b7 07 00 40  	lui	a5, 262144
80006488: 63 76 f6 00  	bgeu	a2, a5, 0x80006494 <softfloat_addMagsF32+0xdc>
8000648c: 13 04 f4 ff  	addi	s0, s0, -1
80006490: 13 16 16 00  	slli	a2, a2, 1
80006494: 93 05 04 00  	mv	a1, s0
80006498: 03 34 01 02  	ld	s0, 32(sp)
8000649c: 83 30 81 02  	ld	ra, 40(sp)
800064a0: 83 34 81 01  	ld	s1, 24(sp)
800064a4: 03 39 01 01  	ld	s2, 16(sp)
800064a8: 83 39 81 00  	ld	s3, 8(sp)
800064ac: 13 05 0a 00  	mv	a0, s4
800064b0: 03 3a 01 00  	ld	s4, 0(sp)
800064b4: 13 01 01 03  	addi	sp, sp, 48
800064b8: 6f 00 50 5c  	j	0x8000727c <softfloat_roundPackToF32>
800064bc: 63 82 f4 08  	beq	s1, a5, 0x80006540 <softfloat_addMagsF32+0x188>
800064c0: 37 05 00 20  	lui	a0, 131072
800064c4: 63 14 04 00  	bnez	s0, 0x800064cc <softfloat_addMagsF32+0x114>
800064c8: 13 05 09 00  	mv	a0, s2
800064cc: b3 85 84 40  	sub	a1, s1, s0
800064d0: 3b 05 25 01  	addw	a0, a0, s2
800064d4: ef 10 80 14  	jal	0x8000761c <softfloat_shiftRightJam32>
800064d8: 13 19 05 02  	slli	s2, a0, 32
800064dc: 13 59 09 02  	srli	s2, s2, 32
800064e0: 13 84 04 00  	mv	s0, s1
800064e4: 6f f0 5f f9  	j	0x80006478 <softfloat_addMagsF32+0xc0>
800064e8: 3b 05 e5 00  	addw	a0, a0, a4
800064ec: 83 30 81 02  	ld	ra, 40(sp)
800064f0: 03 34 01 02  	ld	s0, 32(sp)
800064f4: 83 34 81 01  	ld	s1, 24(sp)
800064f8: 03 39 01 01  	ld	s2, 16(sp)
800064fc: 83 39 81 00  	ld	s3, 8(sp)
80006500: 03 3a 01 00  	ld	s4, 0(sp)
80006504: 13 01 01 03  	addi	sp, sp, 48
80006508: 67 80 00 00  	ret
8000650c: 13 16 66 00  	slli	a2, a2, 6
80006510: 6f f0 5f f8  	j	0x80006494 <softfloat_addMagsF32+0xdc>
80006514: 63 04 09 00  	beqz	s2, 0x8000651c <softfloat_addMagsF32+0x164>
80006518: ef 10 90 11  	jal	0x80007e30 <softfloat_propagateNaNF32UI>
8000651c: 1b 05 05 00  	sext.w	a0, a0
80006520: 83 30 81 02  	ld	ra, 40(sp)
80006524: 03 34 01 02  	ld	s0, 32(sp)
80006528: 83 34 81 01  	ld	s1, 24(sp)
8000652c: 03 39 01 01  	ld	s2, 16(sp)
80006530: 83 39 81 00  	ld	s3, 8(sp)
80006534: 03 3a 01 00  	ld	s4, 0(sp)
80006538: 13 01 01 03  	addi	sp, sp, 48
8000653c: 67 80 00 00  	ret
80006540: e3 9c 09 fc  	bnez	s3, 0x80006518 <softfloat_addMagsF32+0x160>
80006544: 1b 1a fa 01  	slliw	s4, s4, 31
80006548: 37 05 80 7f  	lui	a0, 522240
8000654c: 3b 05 aa 00  	addw	a0, s4, a0
80006550: 6f f0 df f9  	j	0x800064ec <softfloat_addMagsF32+0x134>
80006554: 33 67 b5 00  	or	a4, a0, a1
80006558: b3 77 f7 00  	and	a5, a4, a5
8000655c: e3 9e 07 fa  	bnez	a5, 0x80006518 <softfloat_addMagsF32+0x160>
80006560: 1b 05 05 00  	sext.w	a0, a0
80006564: 6f f0 df fb  	j	0x80006520 <softfloat_addMagsF32+0x168>

0000000080006568 <softfloat_addMagsF64>:
80006568: 13 01 01 fd  	addi	sp, sp, -48
8000656c: 23 30 81 02  	sd	s0, 32(sp)
80006570: 23 3c 91 00  	sd	s1, 24(sp)
80006574: 13 54 45 03  	srli	s0, a0, 52
80006578: 93 d4 45 03  	srli	s1, a1, 52
8000657c: 93 07 f0 ff  	li	a5, -1
80006580: 93 d7 c7 00  	srli	a5, a5, 12
80006584: 23 34 31 01  	sd	s3, 8(sp)
80006588: 13 74 f4 7f  	andi	s0, s0, 2047
8000658c: 93 f4 f4 7f  	andi	s1, s1, 2047
80006590: 23 34 11 02  	sd	ra, 40(sp)
80006594: 23 38 21 01  	sd	s2, 16(sp)
80006598: 23 30 41 01  	sd	s4, 0(sp)
8000659c: 93 09 06 00  	mv	s3, a2
800065a0: b3 76 f5 00  	and	a3, a0, a5
800065a4: 33 f7 f5 00  	and	a4, a1, a5
800065a8: 33 08 94 40  	sub	a6, s0, s1
800065ac: 63 16 94 04  	bne	s0, s1, 0x800065f8 <softfloat_addMagsF64+0x90>
800065b0: 63 08 04 0c  	beqz	s0, 0x80006680 <softfloat_addMagsF64+0x118>
800065b4: 13 06 f0 7f  	li	a2, 2047
800065b8: 63 04 c4 12  	beq	s0, a2, 0x800066e0 <softfloat_addMagsF64+0x178>
800065bc: 13 05 10 00  	li	a0, 1
800065c0: 13 15 55 03  	slli	a0, a0, 53
800065c4: 33 07 a7 00  	add	a4, a4, a0
800065c8: 33 07 d7 00  	add	a4, a4, a3
800065cc: 13 16 97 00  	slli	a2, a4, 9
800065d0: 93 05 04 00  	mv	a1, s0
800065d4: 03 34 01 02  	ld	s0, 32(sp)
800065d8: 83 30 81 02  	ld	ra, 40(sp)
800065dc: 83 34 81 01  	ld	s1, 24(sp)
800065e0: 03 39 01 01  	ld	s2, 16(sp)
800065e4: 03 3a 01 00  	ld	s4, 0(sp)
800065e8: 13 85 09 00  	mv	a0, s3
800065ec: 83 39 81 00  	ld	s3, 8(sp)
800065f0: 13 01 01 03  	addi	sp, sp, 48
800065f4: 6f 00 d0 5e  	j	0x800073e0 <softfloat_roundPackToF64>
800065f8: 13 99 96 00  	slli	s2, a3, 9
800065fc: 13 1a 97 00  	slli	s4, a4, 9
80006600: 93 07 f0 7f  	li	a5, 2047
80006604: 63 48 08 04  	bltz	a6, 0x80006654 <softfloat_addMagsF64+0xec>
80006608: 63 0e f4 08  	beq	s0, a5, 0x800066a4 <softfloat_addMagsF64+0x13c>
8000660c: 13 15 a7 00  	slli	a0, a4, 10
80006610: 63 88 04 00  	beqz	s1, 0x80006620 <softfloat_addMagsF64+0xb8>
80006614: 13 07 10 00  	li	a4, 1
80006618: 13 17 d7 03  	slli	a4, a4, 61
8000661c: 33 05 ea 00  	add	a0, s4, a4
80006620: 93 05 08 00  	mv	a1, a6
80006624: ef 10 40 02  	jal	0x80007648 <softfloat_shiftRightJam64>
80006628: 13 0a 05 00  	mv	s4, a0
8000662c: 13 07 10 00  	li	a4, 1
80006630: 33 09 49 01  	add	s2, s2, s4
80006634: 13 17 d7 03  	slli	a4, a4, 61
80006638: 93 07 f0 ff  	li	a5, -1
8000663c: 33 06 e9 00  	add	a2, s2, a4
80006640: 93 d7 27 00  	srli	a5, a5, 2
80006644: e3 e6 c7 f8  	bltu	a5, a2, 0x800065d0 <softfloat_addMagsF64+0x68>
80006648: 13 04 f4 ff  	addi	s0, s0, -1
8000664c: 13 16 16 00  	slli	a2, a2, 1
80006650: 6f f0 1f f8  	j	0x800065d0 <softfloat_addMagsF64+0x68>
80006654: 63 8c f4 06  	beq	s1, a5, 0x800066cc <softfloat_addMagsF64+0x164>
80006658: 13 95 a6 00  	slli	a0, a3, 10
8000665c: 63 08 04 00  	beqz	s0, 0x8000666c <softfloat_addMagsF64+0x104>
80006660: 93 06 10 00  	li	a3, 1
80006664: 93 96 d6 03  	slli	a3, a3, 61
80006668: 33 05 d9 00  	add	a0, s2, a3
8000666c: b3 85 84 40  	sub	a1, s1, s0
80006670: ef 00 90 7d  	jal	0x80007648 <softfloat_shiftRightJam64>
80006674: 13 09 05 00  	mv	s2, a0
80006678: 13 84 04 00  	mv	s0, s1
8000667c: 6f f0 1f fb  	j	0x8000662c <softfloat_addMagsF64+0xc4>
80006680: 33 05 e5 00  	add	a0, a0, a4
80006684: 83 30 81 02  	ld	ra, 40(sp)
80006688: 03 34 01 02  	ld	s0, 32(sp)
8000668c: 83 34 81 01  	ld	s1, 24(sp)
80006690: 03 39 01 01  	ld	s2, 16(sp)
80006694: 83 39 81 00  	ld	s3, 8(sp)
80006698: 03 3a 01 00  	ld	s4, 0(sp)
8000669c: 13 01 01 03  	addi	sp, sp, 48
800066a0: 67 80 00 00  	ret
800066a4: e3 00 09 fe  	beqz	s2, 0x80006684 <softfloat_addMagsF64+0x11c>
800066a8: ef 10 40 7d  	jal	0x80007e7c <softfloat_propagateNaNF64UI>
800066ac: 83 30 81 02  	ld	ra, 40(sp)
800066b0: 03 34 01 02  	ld	s0, 32(sp)
800066b4: 83 34 81 01  	ld	s1, 24(sp)
800066b8: 03 39 01 01  	ld	s2, 16(sp)
800066bc: 83 39 81 00  	ld	s3, 8(sp)
800066c0: 03 3a 01 00  	ld	s4, 0(sp)
800066c4: 13 01 01 03  	addi	sp, sp, 48
800066c8: 67 80 00 00  	ret
800066cc: e3 1e 0a fc  	bnez	s4, 0x800066a8 <softfloat_addMagsF64+0x140>
800066d0: 13 16 f6 03  	slli	a2, a2, 63
800066d4: 13 95 44 03  	slli	a0, s1, 52
800066d8: 33 05 a6 00  	add	a0, a2, a0
800066dc: 6f f0 9f fa  	j	0x80006684 <softfloat_addMagsF64+0x11c>
800066e0: 33 67 b5 00  	or	a4, a0, a1
800066e4: b3 77 f7 00  	and	a5, a4, a5
800066e8: e3 90 07 fc  	bnez	a5, 0x800066a8 <softfloat_addMagsF64+0x140>
800066ec: 6f f0 9f f9  	j	0x80006684 <softfloat_addMagsF64+0x11c>

00000000800066f0 <softfloat_approxRecip32_1>:
800066f0: 9b 57 b5 01  	srliw	a5, a0, 27
800066f4: 93 f7 f7 00  	andi	a5, a5, 15
800066f8: 93 97 17 00  	slli	a5, a5, 1
800066fc: 17 27 00 00  	auipc	a4, 2
80006700: 13 07 c7 56  	addi	a4, a4, 1388
80006704: 33 07 f7 00  	add	a4, a4, a5
80006708: 83 56 07 00  	lhu	a3, 0(a4)
8000670c: 1b 57 b5 00  	srliw	a4, a0, 11
80006710: 13 17 07 03  	slli	a4, a4, 48
80006714: 13 57 07 03  	srli	a4, a4, 48
80006718: b3 86 e6 02  	<unknown>
8000671c: 17 27 00 00  	auipc	a4, 2
80006720: 13 07 c7 56  	addi	a4, a4, 1388
80006724: b3 07 f7 00  	add	a5, a4, a5
80006728: 03 d7 07 00  	lhu	a4, 0(a5)
8000672c: 93 17 05 02  	slli	a5, a0, 32
80006730: 93 d7 07 02  	srli	a5, a5, 32
80006734: 93 d6 46 01  	srli	a3, a3, 20
80006738: 3b 07 d7 40  	subw	a4, a4, a3
8000673c: 13 17 07 03  	slli	a4, a4, 48
80006740: 13 57 07 03  	srli	a4, a4, 48
80006744: b3 87 e7 02  	<unknown>
80006748: 93 16 07 01  	slli	a3, a4, 16
8000674c: 93 d7 77 00  	srli	a5, a5, 7
80006750: 93 c7 f7 ff  	not	a5, a5
80006754: 93 97 07 02  	slli	a5, a5, 32
80006758: 93 d7 07 02  	srli	a5, a5, 32
8000675c: 33 05 f7 02  	<unknown>
80006760: b3 87 f7 02  	<unknown>
80006764: 13 55 85 01  	srli	a0, a0, 24
80006768: 33 05 d5 00  	add	a0, a0, a3
8000676c: 13 17 05 02  	slli	a4, a0, 32
80006770: 13 57 07 02  	srli	a4, a4, 32
80006774: 93 d7 07 02  	srli	a5, a5, 32
80006778: b3 87 e7 02  	<unknown>
8000677c: 93 d7 07 03  	srli	a5, a5, 48
80006780: 3b 85 a7 00  	addw	a0, a5, a0
80006784: 67 80 00 00  	ret

0000000080006788 <softfloat_approxRecipSqrt32_1>:
80006788: 9b d7 b5 01  	srliw	a5, a1, 27
8000678c: 93 f7 e7 00  	andi	a5, a5, 14
80006790: bb 87 a7 00  	addw	a5, a5, a0
80006794: 93 97 17 00  	slli	a5, a5, 1
80006798: 17 27 00 00  	auipc	a4, 2
8000679c: 13 07 07 51  	addi	a4, a4, 1296
800067a0: 33 07 f7 00  	add	a4, a4, a5
800067a4: 83 56 07 00  	lhu	a3, 0(a4)
800067a8: 1b d7 c5 00  	srliw	a4, a1, 12
800067ac: 13 17 07 03  	slli	a4, a4, 48
800067b0: 13 57 07 03  	srli	a4, a4, 48
800067b4: b3 86 e6 02  	<unknown>
800067b8: 17 27 00 00  	auipc	a4, 2
800067bc: 13 07 07 51  	addi	a4, a4, 1296
800067c0: b3 07 f7 00  	add	a5, a4, a5
800067c4: 03 d7 07 00  	lhu	a4, 0(a5)
800067c8: 93 d7 46 01  	srli	a5, a3, 20
800067cc: 3b 07 f7 40  	subw	a4, a4, a5
800067d0: 13 17 07 03  	slli	a4, a4, 48
800067d4: 13 57 07 03  	srli	a4, a4, 48
800067d8: b3 06 e7 02  	<unknown>
800067dc: 63 1a 05 00  	bnez	a0, 0x800067f0 <softfloat_approxRecipSqrt32_1+0x68>
800067e0: 93 97 16 00  	slli	a5, a3, 1
800067e4: 93 06 f0 ff  	li	a3, -1
800067e8: 93 d6 06 02  	srli	a3, a3, 32
800067ec: b3 f6 d7 00  	and	a3, a5, a3
800067f0: 93 97 05 02  	slli	a5, a1, 32
800067f4: 93 d7 07 02  	srli	a5, a5, 32
800067f8: 93 15 07 01  	slli	a1, a4, 16
800067fc: 1b 16 e7 00  	slliw	a2, a4, 14
80006800: b3 87 d7 02  	<unknown>
80006804: 93 06 10 00  	li	a3, 1
80006808: 93 96 f6 01  	slli	a3, a3, 31
8000680c: 93 d7 77 01  	srli	a5, a5, 23
80006810: 93 c7 f7 ff  	not	a5, a5
80006814: 93 97 07 02  	slli	a5, a5, 32
80006818: 93 d7 07 02  	srli	a5, a5, 32
8000681c: 33 05 f7 02  	<unknown>
80006820: b3 87 f7 02  	<unknown>
80006824: 13 55 95 01  	srli	a0, a0, 25
80006828: 33 05 b5 00  	add	a0, a0, a1
8000682c: 13 57 15 00  	srli	a4, a0, 1
80006830: 93 55 35 00  	srli	a1, a0, 3
80006834: 3b 07 b7 00  	addw	a4, a4, a1
80006838: 3b 07 c7 40  	subw	a4, a4, a2
8000683c: 13 17 07 02  	slli	a4, a4, 32
80006840: 13 57 07 02  	srli	a4, a4, 32
80006844: 93 d7 07 02  	srli	a5, a5, 32
80006848: b3 07 f7 02  	<unknown>
8000684c: 93 d7 07 03  	srli	a5, a5, 48
80006850: 33 85 a7 00  	add	a0, a5, a0
80006854: b3 77 d5 00  	and	a5, a0, a3
80006858: 63 94 07 00  	bnez	a5, 0x80006860 <softfloat_approxRecipSqrt32_1+0xd8>
8000685c: 13 85 06 00  	mv	a0, a3
80006860: 1b 05 05 00  	sext.w	a0, a0
80006864: 67 80 00 00  	ret

0000000080006868 <softfloat_mul64To128M>:
80006868: 93 07 f0 ff  	li	a5, -1
8000686c: 93 d7 07 02  	srli	a5, a5, 32
80006870: 93 56 05 02  	srli	a3, a0, 32
80006874: 93 d8 05 02  	srli	a7, a1, 32
80006878: 33 75 f5 00  	and	a0, a0, a5
8000687c: b3 f7 f5 00  	and	a5, a1, a5
80006880: 33 88 f6 02  	<unknown>
80006884: 33 87 a8 02  	<unknown>
80006888: 33 07 07 01  	add	a4, a4, a6
8000688c: b3 07 f5 02  	<unknown>
80006890: 13 05 00 00  	li	a0, 0
80006894: b3 85 16 03  	<unknown>
80006898: 63 76 07 01  	bgeu	a4, a6, 0x800068a4 <softfloat_mul64To128M+0x3c>
8000689c: 13 05 10 00  	li	a0, 1
800068a0: 13 15 05 02  	slli	a0, a0, 32
800068a4: 93 16 07 02  	slli	a3, a4, 32
800068a8: b3 87 d7 00  	add	a5, a5, a3
800068ac: b3 b6 d7 00  	sltu	a3, a5, a3
800068b0: 13 57 07 02  	srli	a4, a4, 32
800068b4: b3 86 b6 00  	add	a3, a3, a1
800068b8: 33 67 a7 00  	or	a4, a4, a0
800068bc: 33 07 d7 00  	add	a4, a4, a3
800068c0: 93 d5 07 02  	srli	a1, a5, 32
800068c4: 93 56 07 02  	srli	a3, a4, 32
800068c8: 23 22 b6 00  	sw	a1, 4(a2)
800068cc: 23 20 f6 00  	sw	a5, 0(a2)
800068d0: 23 26 d6 00  	sw	a3, 12(a2)
800068d4: 23 24 e6 00  	sw	a4, 8(a2)
800068d8: 67 80 00 00  	ret

00000000800068dc <softfloat_mulAddF32>:
800068dc: 13 01 01 f9  	addi	sp, sp, -112
800068e0: 13 87 f6 ff  	addi	a4, a3, -1
800068e4: 23 34 31 05  	sd	s3, 72(sp)
800068e8: 93 09 06 00  	mv	s3, a2
800068ec: 93 86 e6 ff  	addi	a3, a3, -2
800068f0: 13 36 17 00  	seqz	a2, a4
800068f4: 23 3c 91 04  	sd	s1, 88(sp)
800068f8: 23 30 81 03  	sd	s8, 32(sp)
800068fc: 93 54 75 01  	srli	s1, a0, 23
80006900: 1b d7 f9 01  	srliw	a4, s3, 31
80006904: 33 cc a5 00  	xor	s8, a1, a0
80006908: b7 07 80 00  	lui	a5, 2048
8000690c: 93 87 f7 ff  	addi	a5, a5, -1
80006910: 23 30 81 06  	sd	s0, 96(sp)
80006914: 23 38 21 05  	sd	s2, 80(sp)
80006918: 13 b4 16 00  	seqz	s0, a3
8000691c: 23 30 41 05  	sd	s4, 64(sp)
80006920: 23 3c 51 03  	sd	s5, 56(sp)
80006924: 23 38 61 03  	sd	s6, 48(sp)
80006928: 23 34 71 03  	sd	s7, 40(sp)
8000692c: 23 3c 91 01  	sd	s9, 24(sp)
80006930: 23 38 a1 01  	sd	s10, 16(sp)
80006934: 13 da 75 01  	srli	s4, a1, 23
80006938: 33 47 c7 00  	xor	a4, a4, a2
8000693c: 93 db 79 01  	srli	s7, s3, 23
80006940: 1b 5c fc 01  	srliw	s8, s8, 31
80006944: 23 34 11 06  	sd	ra, 104(sp)
80006948: 93 f4 f4 0f  	andi	s1, s1, 255
8000694c: 93 06 f0 0f  	li	a3, 255
80006950: b3 7a f5 00  	and	s5, a0, a5
80006954: 13 7a fa 0f  	andi	s4, s4, 255
80006958: 33 fd f5 00  	and	s10, a1, a5
8000695c: 13 7b f7 0f  	andi	s6, a4, 255
80006960: 93 fb fb 0f  	andi	s7, s7, 255
80006964: 33 f9 f9 00  	and	s2, s3, a5
80006968: b3 4c 8c 00  	xor	s9, s8, s0
8000696c: 63 8c d4 16  	beq	s1, a3, 0x80006ae4 <softfloat_mulAddF32+0x208>
80006970: 63 00 da 12  	beq	s4, a3, 0x80006a90 <softfloat_mulAddF32+0x1b4>
80006974: 63 80 db 1c  	beq	s7, a3, 0x80006b34 <softfloat_mulAddF32+0x258>
80006978: 63 9c 04 00  	bnez	s1, 0x80006990 <softfloat_mulAddF32+0xb4>
8000697c: 63 82 0a 1c  	beqz	s5, 0x80006b40 <softfloat_mulAddF32+0x264>
80006980: 13 85 0a 00  	mv	a0, s5
80006984: ef 00 80 7c  	jal	0x8000714c <softfloat_normSubnormalF32Sig>
80006988: 93 04 05 00  	mv	s1, a0
8000698c: 93 8a 05 00  	mv	s5, a1
80006990: 63 1c 0a 00  	bnez	s4, 0x800069a8 <softfloat_mulAddF32+0xcc>
80006994: 63 06 0d 1a  	beqz	s10, 0x80006b40 <softfloat_mulAddF32+0x264>
80006998: 13 05 0d 00  	mv	a0, s10
8000699c: ef 00 00 7b  	jal	0x8000714c <softfloat_normSubnormalF32Sig>
800069a0: 13 0a 05 00  	mv	s4, a0
800069a4: 13 8d 05 00  	mv	s10, a1
800069a8: b7 07 00 40  	lui	a5, 262144
800069ac: 93 9a 7a 00  	slli	s5, s5, 7
800069b0: 13 1d 7d 00  	slli	s10, s10, 7
800069b4: b3 ea fa 00  	or	s5, s5, a5
800069b8: 33 6d fd 00  	or	s10, s10, a5
800069bc: b3 8a aa 03  	<unknown>
800069c0: 93 07 f0 ff  	li	a5, -1
800069c4: 93 d7 37 00  	srli	a5, a5, 3
800069c8: b3 84 44 01  	add	s1, s1, s4
800069cc: 63 f0 57 1b  	bgeu	a5, s5, 0x80006b6c <softfloat_mulAddF32+0x290>
800069d0: 93 84 24 f8  	addi	s1, s1, -126
800069d4: 63 9c 0b 00  	bnez	s7, 0x800069ec <softfloat_mulAddF32+0x110>
800069d8: 63 00 09 1e  	beqz	s2, 0x80006bb8 <softfloat_mulAddF32+0x2dc>
800069dc: 13 05 09 00  	mv	a0, s2
800069e0: ef 00 c0 76  	jal	0x8000714c <softfloat_normSubnormalF32Sig>
800069e4: 93 0b 05 00  	mv	s7, a0
800069e8: 13 89 05 00  	mv	s2, a1
800069ec: 93 17 69 00  	slli	a5, s2, 6
800069f0: 37 06 00 20  	lui	a2, 131072
800069f4: 33 e9 c7 00  	or	s2, a5, a2
800069f8: b3 85 74 41  	sub	a1, s1, s7
800069fc: 63 06 9b 19  	beq	s6, s9, 0x80006b88 <softfloat_mulAddF32+0x2ac>
80006a00: 13 19 09 02  	slli	s2, s2, 32
80006a04: 63 c6 05 1c  	bltz	a1, 0x80006bd0 <softfloat_mulAddF32+0x2f4>
80006a08: 63 98 05 16  	bnez	a1, 0x80006b78 <softfloat_mulAddF32+0x29c>
80006a0c: b3 89 2a 41  	sub	s3, s5, s2
80006a10: 63 82 2a 15  	beq	s5, s2, 0x80006b54 <softfloat_mulAddF32+0x278>
80006a14: 63 d8 09 00  	bgez	s3, 0x80006a24 <softfloat_mulAddF32+0x148>
80006a18: 33 04 8c 40  	sub	s0, s8, s0
80006a1c: 93 3c 14 00  	seqz	s9, s0
80006a20: b3 09 59 41  	sub	s3, s2, s5
80006a24: 13 85 09 00  	mv	a0, s3
80006a28: ef 10 c0 56  	jal	0x80007f94 <softfloat_countLeadingZeros64>
80006a2c: 1b 06 f5 fd  	addiw	a2, a0, -33
80006a30: 9b 07 f5 ff  	addiw	a5, a0, -1
80006a34: 1b 17 86 01  	slliw	a4, a2, 24
80006a38: 9b 97 87 01  	slliw	a5, a5, 24
80006a3c: 9b d7 87 41  	sraiw	a5, a5, 24
80006a40: 1b 57 87 41  	sraiw	a4, a4, 24
80006a44: b3 84 f4 40  	sub	s1, s1, a5
80006a48: 33 96 c9 00  	sll	a2, s3, a2
80006a4c: 63 40 07 1a  	bltz	a4, 0x80006bec <softfloat_mulAddF32+0x310>
80006a50: 03 34 01 06  	ld	s0, 96(sp)
80006a54: 83 30 81 06  	ld	ra, 104(sp)
80006a58: 03 39 01 05  	ld	s2, 80(sp)
80006a5c: 83 39 81 04  	ld	s3, 72(sp)
80006a60: 03 3a 01 04  	ld	s4, 64(sp)
80006a64: 83 3a 81 03  	ld	s5, 56(sp)
80006a68: 03 3b 01 03  	ld	s6, 48(sp)
80006a6c: 83 3b 81 02  	ld	s7, 40(sp)
80006a70: 03 3c 01 02  	ld	s8, 32(sp)
80006a74: 03 3d 01 01  	ld	s10, 16(sp)
80006a78: 93 85 04 00  	mv	a1, s1
80006a7c: 13 85 0c 00  	mv	a0, s9
80006a80: 83 34 81 05  	ld	s1, 88(sp)
80006a84: 83 3c 81 01  	ld	s9, 24(sp)
80006a88: 13 01 01 07  	addi	sp, sp, 112
80006a8c: 6f 00 00 7f  	j	0x8000727c <softfloat_roundPackToF32>
80006a90: b3 e4 54 01  	or	s1, s1, s5
80006a94: 63 0e 0d 04  	beqz	s10, 0x80006af0 <softfloat_mulAddF32+0x214>
80006a98: ef 10 80 39  	jal	0x80007e30 <softfloat_propagateNaNF32UI>
80006a9c: 93 85 09 00  	mv	a1, s3
80006aa0: ef 10 00 39  	jal	0x80007e30 <softfloat_propagateNaNF32UI>
80006aa4: 9b 07 05 00  	sext.w	a5, a0
80006aa8: 83 30 81 06  	ld	ra, 104(sp)
80006aac: 03 34 01 06  	ld	s0, 96(sp)
80006ab0: 83 34 81 05  	ld	s1, 88(sp)
80006ab4: 03 39 01 05  	ld	s2, 80(sp)
80006ab8: 83 39 81 04  	ld	s3, 72(sp)
80006abc: 03 3a 01 04  	ld	s4, 64(sp)
80006ac0: 83 3a 81 03  	ld	s5, 56(sp)
80006ac4: 03 3b 01 03  	ld	s6, 48(sp)
80006ac8: 83 3b 81 02  	ld	s7, 40(sp)
80006acc: 03 3c 01 02  	ld	s8, 32(sp)
80006ad0: 83 3c 81 01  	ld	s9, 24(sp)
80006ad4: 03 3d 01 01  	ld	s10, 16(sp)
80006ad8: 13 85 07 00  	mv	a0, a5
80006adc: 13 01 01 07  	addi	sp, sp, 112
80006ae0: 67 80 00 00  	ret
80006ae4: e3 9a 0a fa  	bnez	s5, 0x80006a98 <softfloat_mulAddF32+0x1bc>
80006ae8: 63 00 9a 04  	beq	s4, s1, 0x80006b28 <softfloat_mulAddF32+0x24c>
80006aec: b3 64 aa 01  	or	s1, s4, s10
80006af0: 63 86 04 02  	beqz	s1, 0x80006b1c <softfloat_mulAddF32+0x240>
80006af4: b7 07 80 7f  	lui	a5, 522240
80006af8: 1b 95 fc 01  	slliw	a0, s9, 31
80006afc: 3b 05 f5 00  	addw	a0, a0, a5
80006b00: 9b 07 05 00  	sext.w	a5, a0
80006b04: 13 07 f0 0f  	li	a4, 255
80006b08: 13 15 05 02  	slli	a0, a0, 32
80006b0c: 13 55 05 02  	srli	a0, a0, 32
80006b10: e3 9c eb f8  	bne	s7, a4, 0x80006aa8 <softfloat_mulAddF32+0x1cc>
80006b14: e3 14 09 f8  	bnez	s2, 0x80006a9c <softfloat_mulAddF32+0x1c0>
80006b18: e3 08 9b f9  	beq	s6, s9, 0x80006aa8 <softfloat_mulAddF32+0x1cc>
80006b1c: f3 67 18 00  	csrrsi	a5, fflags, 16
80006b20: 37 05 c0 7f  	lui	a0, 523264
80006b24: 6f f0 9f f7  	j	0x80006a9c <softfloat_mulAddF32+0x1c0>
80006b28: e3 18 0d f6  	bnez	s10, 0x80006a98 <softfloat_mulAddF32+0x1bc>
80006b2c: b3 64 aa 01  	or	s1, s4, s10
80006b30: 6f f0 1f fc  	j	0x80006af0 <softfloat_mulAddF32+0x214>
80006b34: 63 0c 09 00  	beqz	s2, 0x80006b4c <softfloat_mulAddF32+0x270>
80006b38: 13 05 00 00  	li	a0, 0
80006b3c: 6f f0 1f f6  	j	0x80006a9c <softfloat_mulAddF32+0x1c0>
80006b40: b3 e7 2b 01  	or	a5, s7, s2
80006b44: 63 94 07 00  	bnez	a5, 0x80006b4c <softfloat_mulAddF32+0x270>
80006b48: 63 16 9b 01  	bne	s6, s9, 0x80006b54 <softfloat_mulAddF32+0x278>
80006b4c: 9b 87 09 00  	sext.w	a5, s3
80006b50: 6f f0 9f f5  	j	0x80006aa8 <softfloat_mulAddF32+0x1cc>
80006b54: 9b 06 02 00  	sext.w	a3, tp
80006b58: 13 07 20 00  	li	a4, 2
80006b5c: b7 07 00 80  	lui	a5, 524288
80006b60: e3 84 e6 f4  	beq	a3, a4, 0x80006aa8 <softfloat_mulAddF32+0x1cc>
80006b64: 93 07 00 00  	li	a5, 0
80006b68: 6f f0 1f f4  	j	0x80006aa8 <softfloat_mulAddF32+0x1cc>
80006b6c: 93 84 14 f8  	addi	s1, s1, -127
80006b70: 93 9a 1a 00  	slli	s5, s5, 1
80006b74: 6f f0 1f e6  	j	0x800069d4 <softfloat_mulAddF32+0xf8>
80006b78: 13 05 09 00  	mv	a0, s2
80006b7c: ef 00 d0 2c  	jal	0x80007648 <softfloat_shiftRightJam64>
80006b80: b3 89 aa 40  	sub	s3, s5, a0
80006b84: 6f f0 1f ea  	j	0x80006a24 <softfloat_mulAddF32+0x148>
80006b88: 63 50 b0 08  	blez	a1, 0x80006c08 <softfloat_mulAddF32+0x32c>
80006b8c: 13 15 09 02  	slli	a0, s2, 32
80006b90: ef 00 90 2b  	jal	0x80007648 <softfloat_shiftRightJam64>
80006b94: 93 05 00 02  	li	a1, 32
80006b98: 33 05 55 01  	add	a0, a0, s5
80006b9c: ef 00 90 4f  	jal	0x80007894 <softfloat_shortShiftRightJam64>
80006ba0: 13 06 05 00  	mv	a2, a0
80006ba4: b7 07 00 40  	lui	a5, 262144
80006ba8: e3 74 f6 ea  	bgeu	a2, a5, 0x80006a50 <softfloat_mulAddF32+0x174>
80006bac: 93 84 f4 ff  	addi	s1, s1, -1
80006bb0: 13 16 16 00  	slli	a2, a2, 1
80006bb4: 6f f0 df e9  	j	0x80006a50 <softfloat_mulAddF32+0x174>
80006bb8: 93 05 f0 01  	li	a1, 31
80006bbc: 13 85 0a 00  	mv	a0, s5
80006bc0: ef 00 50 4d  	jal	0x80007894 <softfloat_shortShiftRightJam64>
80006bc4: 93 84 f4 ff  	addi	s1, s1, -1
80006bc8: 13 06 05 00  	mv	a2, a0
80006bcc: 6f f0 5f e8  	j	0x80006a50 <softfloat_mulAddF32+0x174>
80006bd0: b3 85 9b 40  	sub	a1, s7, s1
80006bd4: 13 85 0a 00  	mv	a0, s5
80006bd8: ef 00 10 27  	jal	0x80007648 <softfloat_shiftRightJam64>
80006bdc: b3 09 a9 40  	sub	s3, s2, a0
80006be0: 93 84 0b 00  	mv	s1, s7
80006be4: 93 0c 0b 00  	mv	s9, s6
80006be8: 6f f0 df e3  	j	0x80006a24 <softfloat_mulAddF32+0x148>
80006bec: 93 05 10 02  	li	a1, 33
80006bf0: bb 85 a5 40  	subw	a1, a1, a0
80006bf4: 93 f5 f5 0f  	andi	a1, a1, 255
80006bf8: 13 85 09 00  	mv	a0, s3
80006bfc: ef 00 90 49  	jal	0x80007894 <softfloat_shortShiftRightJam64>
80006c00: 13 06 05 00  	mv	a2, a0
80006c04: 6f f0 df e4  	j	0x80006a50 <softfloat_mulAddF32+0x174>
80006c08: 93 07 00 02  	li	a5, 32
80006c0c: b3 85 b7 40  	sub	a1, a5, a1
80006c10: 13 85 0a 00  	mv	a0, s5
80006c14: ef 00 50 23  	jal	0x80007648 <softfloat_shiftRightJam64>
80006c18: 33 06 25 01  	add	a2, a0, s2
80006c1c: 93 84 0b 00  	mv	s1, s7
80006c20: 6f f0 5f f8  	j	0x80006ba4 <softfloat_mulAddF32+0x2c8>

0000000080006c24 <softfloat_mulAddF64>:
80006c24: 13 01 01 f6  	addi	sp, sp, -160
80006c28: 13 87 f6 ff  	addi	a4, a3, -1
80006c2c: 23 3c 31 07  	sd	s3, 120(sp)
80006c30: 93 86 e6 ff  	addi	a3, a3, -2
80006c34: 23 3c 71 05  	sd	s7, 88(sp)
80006c38: 93 59 45 03  	srli	s3, a0, 52
80006c3c: b3 cb a5 00  	xor	s7, a1, a0
80006c40: 93 07 f0 ff  	li	a5, -1
80006c44: 93 d7 c7 00  	srli	a5, a5, 12
80006c48: 23 38 81 08  	sd	s0, 144(sp)
80006c4c: 23 34 91 08  	sd	s1, 136(sp)
80006c50: 13 b4 16 00  	seqz	s0, a3
80006c54: 23 30 21 09  	sd	s2, 128(sp)
80006c58: 23 38 41 07  	sd	s4, 112(sp)
80006c5c: 23 34 51 07  	sd	s5, 104(sp)
80006c60: 23 30 61 07  	sd	s6, 96(sp)
80006c64: 23 38 81 05  	sd	s8, 80(sp)
80006c68: 23 34 91 05  	sd	s9, 72(sp)
80006c6c: 23 30 a1 05  	sd	s10, 64(sp)
80006c70: 13 da 45 03  	srli	s4, a1, 52
80006c74: 93 5a f6 03  	srli	s5, a2, 63
80006c78: 13 37 17 00  	seqz	a4, a4
80006c7c: 13 5b 46 03  	srli	s6, a2, 52
80006c80: 93 db fb 03  	srli	s7, s7, 63
80006c84: 23 3c 11 08  	sd	ra, 152(sp)
80006c88: 23 3c b1 03  	sd	s11, 56(sp)
80006c8c: 93 f9 f9 7f  	andi	s3, s3, 2047
80006c90: 93 06 f0 7f  	li	a3, 2047
80006c94: 13 09 06 00  	mv	s2, a2
80006c98: b3 7c f5 00  	and	s9, a0, a5
80006c9c: 13 7a fa 7f  	andi	s4, s4, 2047
80006ca0: 33 fc f5 00  	and	s8, a1, a5
80006ca4: b3 4a 57 01  	xor	s5, a4, s5
80006ca8: 13 7b fb 7f  	andi	s6, s6, 2047
80006cac: b3 74 f6 00  	and	s1, a2, a5
80006cb0: 33 cd 8b 00  	xor	s10, s7, s0
80006cb4: 63 8c d9 0c  	beq	s3, a3, 0x80006d8c <softfloat_mulAddF64+0x168>
80006cb8: 63 02 da 08  	beq	s4, a3, 0x80006d3c <softfloat_mulAddF64+0x118>
80006cbc: 63 0c db 10  	beq	s6, a3, 0x80006dd4 <softfloat_mulAddF64+0x1b0>
80006cc0: 63 9c 09 00  	bnez	s3, 0x80006cd8 <softfloat_mulAddF64+0xb4>
80006cc4: 63 8e 0c 10  	beqz	s9, 0x80006de0 <softfloat_mulAddF64+0x1bc>
80006cc8: 13 85 0c 00  	mv	a0, s9
80006ccc: ef 00 00 4c  	jal	0x8000718c <softfloat_normSubnormalF64Sig>
80006cd0: 93 09 05 00  	mv	s3, a0
80006cd4: 93 8c 05 00  	mv	s9, a1
80006cd8: 63 1c 0a 00  	bnez	s4, 0x80006cf0 <softfloat_mulAddF64+0xcc>
80006cdc: 63 02 0c 10  	beqz	s8, 0x80006de0 <softfloat_mulAddF64+0x1bc>
80006ce0: 13 05 0c 00  	mv	a0, s8
80006ce4: ef 00 80 4a  	jal	0x8000718c <softfloat_normSubnormalF64Sig>
80006ce8: 13 0a 05 00  	mv	s4, a0
80006cec: 13 8c 05 00  	mv	s8, a1
80006cf0: 13 09 f0 ff  	li	s2, -1
80006cf4: 93 0d 10 00  	li	s11, 1
80006cf8: 93 9d ed 03  	slli	s11, s11, 62
80006cfc: 13 1c bc 00  	slli	s8, s8, 11
80006d00: 13 95 ac 00  	slli	a0, s9, 10
80006d04: 93 15 f9 03  	slli	a1, s2, 63
80006d08: b3 65 bc 00  	or	a1, s8, a1
80006d0c: 13 06 01 01  	addi	a2, sp, 16
80006d10: 33 65 b5 01  	or	a0, a0, s11
80006d14: ef f0 5f b5  	jal	0x80006868 <softfloat_mul64To128M>
80006d18: 03 3c 81 01  	ld	s8, 24(sp)
80006d1c: b3 89 49 01  	add	s3, s3, s4
80006d20: b3 77 bc 01  	and	a5, s8, s11
80006d24: 63 86 07 0e  	beqz	a5, 0x80006e10 <softfloat_mulAddF64+0x1ec>
80006d28: 13 8a 29 c0  	addi	s4, s3, -1022
80006d2c: 63 18 0b 1a  	bnez	s6, 0x80006edc <softfloat_mulAddF64+0x2b8>
80006d30: 63 9a 04 2e  	bnez	s1, 0x80007024 <softfloat_mulAddF64+0x400>
80006d34: 13 8a 19 c0  	addi	s4, s3, -1023
80006d38: 6f 00 c0 0e  	j	0x80006e24 <softfloat_mulAddF64+0x200>
80006d3c: b3 e9 99 01  	or	s3, s3, s9
80006d40: 63 0c 0c 04  	beqz	s8, 0x80006d98 <softfloat_mulAddF64+0x174>
80006d44: ef 10 80 13  	jal	0x80007e7c <softfloat_propagateNaNF64UI>
80006d48: 93 05 09 00  	mv	a1, s2
80006d4c: ef 10 00 13  	jal	0x80007e7c <softfloat_propagateNaNF64UI>
80006d50: 83 30 81 09  	ld	ra, 152(sp)
80006d54: 03 34 01 09  	ld	s0, 144(sp)
80006d58: 83 34 81 08  	ld	s1, 136(sp)
80006d5c: 03 39 01 08  	ld	s2, 128(sp)
80006d60: 83 39 81 07  	ld	s3, 120(sp)
80006d64: 03 3a 01 07  	ld	s4, 112(sp)
80006d68: 83 3a 81 06  	ld	s5, 104(sp)
80006d6c: 03 3b 01 06  	ld	s6, 96(sp)
80006d70: 83 3b 81 05  	ld	s7, 88(sp)
80006d74: 03 3c 01 05  	ld	s8, 80(sp)
80006d78: 83 3c 81 04  	ld	s9, 72(sp)
80006d7c: 03 3d 01 04  	ld	s10, 64(sp)
80006d80: 83 3d 81 03  	ld	s11, 56(sp)
80006d84: 13 01 01 0a  	addi	sp, sp, 160
80006d88: 67 80 00 00  	ret
80006d8c: e3 9c 0c fa  	bnez	s9, 0x80006d44 <softfloat_mulAddF64+0x120>
80006d90: 63 0c 3a 03  	beq	s4, s3, 0x80006dc8 <softfloat_mulAddF64+0x1a4>
80006d94: b3 69 8a 01  	or	s3, s4, s8
80006d98: 63 80 09 02  	beqz	s3, 0x80006db8 <softfloat_mulAddF64+0x194>
80006d9c: 93 07 f0 7f  	li	a5, 2047
80006da0: 13 15 fd 03  	slli	a0, s10, 63
80006da4: 13 97 47 03  	slli	a4, a5, 52
80006da8: 33 05 e5 00  	add	a0, a0, a4
80006dac: e3 12 fb fa  	bne	s6, a5, 0x80006d50 <softfloat_mulAddF64+0x12c>
80006db0: e3 9c 04 f8  	bnez	s1, 0x80006d48 <softfloat_mulAddF64+0x124>
80006db4: e3 8e aa f9  	beq	s5, s10, 0x80006d50 <softfloat_mulAddF64+0x12c>
80006db8: f3 67 18 00  	csrrsi	a5, fflags, 16
80006dbc: 37 f5 ff 00  	lui	a0, 4095
80006dc0: 13 15 75 02  	slli	a0, a0, 39
80006dc4: 6f f0 5f f8  	j	0x80006d48 <softfloat_mulAddF64+0x124>
80006dc8: e3 1e 0c f6  	bnez	s8, 0x80006d44 <softfloat_mulAddF64+0x120>
80006dcc: b3 69 8a 01  	or	s3, s4, s8
80006dd0: 6f f0 9f fc  	j	0x80006d98 <softfloat_mulAddF64+0x174>
80006dd4: 63 8c 04 00  	beqz	s1, 0x80006dec <softfloat_mulAddF64+0x1c8>
80006dd8: 13 05 00 00  	li	a0, 0
80006ddc: 6f f0 df f6  	j	0x80006d48 <softfloat_mulAddF64+0x124>
80006de0: b3 67 9b 00  	or	a5, s6, s1
80006de4: 63 94 07 00  	bnez	a5, 0x80006dec <softfloat_mulAddF64+0x1c8>
80006de8: 63 96 aa 01  	bne	s5, s10, 0x80006df4 <softfloat_mulAddF64+0x1d0>
80006dec: 13 05 09 00  	mv	a0, s2
80006df0: 6f f0 1f f6  	j	0x80006d50 <softfloat_mulAddF64+0x12c>
80006df4: 1b 07 02 00  	sext.w	a4, tp
80006df8: 93 07 20 00  	li	a5, 2
80006dfc: 13 05 00 00  	li	a0, 0
80006e00: e3 18 f7 f4  	bne	a4, a5, 0x80006d50 <softfloat_mulAddF64+0x12c>
80006e04: 13 05 f0 ff  	li	a0, -1
80006e08: 13 15 f5 03  	slli	a0, a0, 63
80006e0c: 6f f0 5f f4  	j	0x80006d50 <softfloat_mulAddF64+0x12c>
80006e10: 13 8a 19 c0  	addi	s4, s3, -1023
80006e14: 63 1e 0b 02  	bnez	s6, 0x80006e50 <softfloat_mulAddF64+0x22c>
80006e18: 63 98 04 12  	bnez	s1, 0x80006f48 <softfloat_mulAddF64+0x324>
80006e1c: 13 1c 1c 00  	slli	s8, s8, 1
80006e20: 13 8a 09 c0  	addi	s4, s3, -1024
80006e24: 83 27 41 01  	lw	a5, 20(sp)
80006e28: 03 27 01 01  	lw	a4, 16(sp)
80006e2c: b3 e7 e7 00  	or	a5, a5, a4
80006e30: 9b 87 07 00  	sext.w	a5, a5
80006e34: 63 84 07 00  	beqz	a5, 0x80006e3c <softfloat_mulAddF64+0x218>
80006e38: 13 6c 1c 00  	ori	s8, s8, 1
80006e3c: 13 06 0c 00  	mv	a2, s8
80006e40: 93 05 0a 00  	mv	a1, s4
80006e44: 13 05 0d 00  	mv	a0, s10
80006e48: ef 00 80 59  	jal	0x800073e0 <softfloat_roundPackToF64>
80006e4c: 6f f0 5f f0  	j	0x80006d50 <softfloat_mulAddF64+0x12c>
80006e50: 93 94 a4 00  	slli	s1, s1, 10
80006e54: b3 09 6a 41  	sub	s3, s4, s6
80006e58: b3 ed b4 01  	or	s11, s1, s11
80006e5c: 63 c4 09 10  	bltz	s3, 0x80006f64 <softfloat_mulAddF64+0x340>
80006e60: 93 06 01 01  	addi	a3, sp, 16
80006e64: 13 86 06 00  	mv	a2, a3
80006e68: 93 85 06 00  	mv	a1, a3
80006e6c: 13 05 40 00  	li	a0, 4
80006e70: ef 10 00 07  	jal	0x80007ee0 <softfloat_addM>
80006e74: 63 9a 09 14  	bnez	s3, 0x80006fc8 <softfloat_mulAddF64+0x3a4>
80006e78: 03 3c 81 01  	ld	s8, 24(sp)
80006e7c: 63 88 aa 13  	beq	s5, s10, 0x80006fac <softfloat_mulAddF64+0x388>
80006e80: b3 07 bc 41  	sub	a5, s8, s11
80006e84: 63 10 bc 21  	bne	s8, s11, 0x80007084 <softfloat_mulAddF64+0x460>
80006e88: 83 27 41 01  	lw	a5, 20(sp)
80006e8c: 03 27 01 01  	lw	a4, 16(sp)
80006e90: b3 e7 e7 00  	or	a5, a5, a4
80006e94: 9b 87 07 00  	sext.w	a5, a5
80006e98: e3 8e 07 f4  	beqz	a5, 0x80006df4 <softfloat_mulAddF64+0x1d0>
80006e9c: 23 3c 01 00  	sd	zero, 24(sp)
80006ea0: 03 3c 81 01  	ld	s8, 24(sp)
80006ea4: 63 1e 0c 0c  	bnez	s8, 0x80006f80 <softfloat_mulAddF64+0x35c>
80006ea8: 03 35 01 01  	ld	a0, 16(sp)
80006eac: ef 10 80 0e  	jal	0x80007f94 <softfloat_countLeadingZeros64>
80006eb0: 1b 05 f5 ff  	addiw	a0, a0, -1
80006eb4: 13 05 05 04  	addi	a0, a0, 64
80006eb8: 93 06 01 01  	addi	a3, sp, 16
80006ebc: 33 0a aa 40  	sub	s4, s4, a0
80006ec0: 1b 06 05 00  	sext.w	a2, a0
80006ec4: 93 85 06 00  	mv	a1, a3
80006ec8: 13 05 40 00  	li	a0, 4
80006ecc: ef 00 00 67  	jal	0x8000753c <softfloat_shiftLeftM>
80006ed0: 13 0a fa ff  	addi	s4, s4, -1
80006ed4: 03 3c 81 01  	ld	s8, 24(sp)
80006ed8: 6f f0 df f4  	j	0x80006e24 <softfloat_mulAddF64+0x200>
80006edc: 93 94 a4 00  	slli	s1, s1, 10
80006ee0: b3 09 6a 41  	sub	s3, s4, s6
80006ee4: b3 ed b4 01  	or	s11, s1, s11
80006ee8: e3 d6 09 f8  	bgez	s3, 0x80006e74 <softfloat_mulAddF64+0x250>
80006eec: 63 86 aa 0b  	beq	s5, s10, 0x80006f98 <softfloat_mulAddF64+0x374>
80006ef0: 63 8e 29 15  	beq	s3, s2, 0x8000704c <softfloat_mulAddF64+0x428>
80006ef4: 13 05 0c 00  	mv	a0, s8
80006ef8: b3 05 4b 41  	sub	a1, s6, s4
80006efc: ef 00 c0 74  	jal	0x80007648 <softfloat_shiftRightJam64>
80006f00: 13 0c 05 00  	mv	s8, a0
80006f04: 93 07 f0 ff  	li	a5, -1
80006f08: 63 86 f9 1a  	beq	s3, a5, 0x800070b4 <softfloat_mulAddF64+0x490>
80006f0c: 83 27 41 01  	lw	a5, 20(sp)
80006f10: 03 27 01 01  	lw	a4, 16(sp)
80006f14: 33 8c 8d 41  	sub	s8, s11, s8
80006f18: b3 e7 e7 00  	or	a5, a5, a4
80006f1c: 9b 87 07 00  	sext.w	a5, a5
80006f20: 63 86 07 00  	beqz	a5, 0x80006f2c <softfloat_mulAddF64+0x308>
80006f24: 13 0c fc ff  	addi	s8, s8, -1
80006f28: 13 6c 1c 00  	ori	s8, s8, 1
80006f2c: 93 17 1c 00  	slli	a5, s8, 1
80006f30: 13 0a fb ff  	addi	s4, s6, -1
80006f34: 13 8d 0a 00  	mv	s10, s5
80006f38: e3 c2 07 f0  	bltz	a5, 0x80006e3c <softfloat_mulAddF64+0x218>
80006f3c: 13 1c 1c 00  	slli	s8, s8, 1
80006f40: 13 0a eb ff  	addi	s4, s6, -2
80006f44: 6f f0 9f ef  	j	0x80006e3c <softfloat_mulAddF64+0x218>
80006f48: 13 85 04 00  	mv	a0, s1
80006f4c: ef 00 00 24  	jal	0x8000718c <softfloat_normSubnormalF64Sig>
80006f50: 13 0b 05 00  	mv	s6, a0
80006f54: 93 95 a5 00  	slli	a1, a1, 10
80006f58: b3 09 6a 41  	sub	s3, s4, s6
80006f5c: b3 ed b5 01  	or	s11, a1, s11
80006f60: e3 d0 09 f0  	bgez	s3, 0x80006e60 <softfloat_mulAddF64+0x23c>
80006f64: 63 80 aa 15  	beq	s5, s10, 0x800070a4 <softfloat_mulAddF64+0x480>
80006f68: 93 c5 f9 ff  	not	a1, s3
80006f6c: 63 84 29 15  	beq	s3, s2, 0x800070b4 <softfloat_mulAddF64+0x490>
80006f70: 13 05 0c 00  	mv	a0, s8
80006f74: ef 00 40 6d  	jal	0x80007648 <softfloat_shiftRightJam64>
80006f78: 13 0c 05 00  	mv	s8, a0
80006f7c: 6f f0 9f f8  	j	0x80006f04 <softfloat_mulAddF64+0x2e0>
80006f80: 13 05 0c 00  	mv	a0, s8
80006f84: ef 10 00 01  	jal	0x80007f94 <softfloat_countLeadingZeros64>
80006f88: 93 07 10 00  	li	a5, 1
80006f8c: 63 1c f5 14  	bne	a0, a5, 0x800070e4 <softfloat_mulAddF64+0x4c0>
80006f90: 13 0a fa ff  	addi	s4, s4, -1
80006f94: 6f f0 1f e9  	j	0x80006e24 <softfloat_mulAddF64+0x200>
80006f98: b3 05 4b 41  	sub	a1, s6, s4
80006f9c: 13 05 0c 00  	mv	a0, s8
80006fa0: ef 00 80 6a  	jal	0x80007648 <softfloat_shiftRightJam64>
80006fa4: 13 0c 05 00  	mv	s8, a0
80006fa8: 13 0a 0b 00  	mv	s4, s6
80006fac: 33 0c bc 01  	add	s8, s8, s11
80006fb0: e3 50 0c fe  	bgez	s8, 0x80006f90 <softfloat_mulAddF64+0x36c>
80006fb4: 13 05 0c 00  	mv	a0, s8
80006fb8: 93 05 10 00  	li	a1, 1
80006fbc: ef 00 90 0d  	jal	0x80007894 <softfloat_shortShiftRightJam64>
80006fc0: 13 0c 05 00  	mv	s8, a0
80006fc4: 6f f0 1f e6  	j	0x80006e24 <softfloat_mulAddF64+0x200>
80006fc8: 93 06 01 02  	addi	a3, sp, 32
80006fcc: 1b 86 09 00  	sext.w	a2, s3
80006fd0: 93 85 06 00  	mv	a1, a3
80006fd4: 13 05 40 00  	li	a0, 4
80006fd8: 23 34 b1 03  	sd	s11, 40(sp)
80006fdc: 23 30 01 02  	sd	zero, 32(sp)
80006fe0: ef 00 00 69  	jal	0x80007670 <softfloat_shiftRightJamM>
80006fe4: 63 82 aa 09  	beq	s5, s10, 0x80007068 <softfloat_mulAddF64+0x444>
80006fe8: 93 06 01 01  	addi	a3, sp, 16
80006fec: 13 06 01 02  	addi	a2, sp, 32
80006ff0: 93 85 06 00  	mv	a1, a3
80006ff4: 13 05 40 00  	li	a0, 4
80006ff8: ef 00 50 14  	jal	0x8000793c <softfloat_subM>
80006ffc: 93 07 10 00  	li	a5, 1
80007000: e3 80 f9 ea  	beq	s3, a5, 0x80006ea0 <softfloat_mulAddF64+0x27c>
80007004: 03 3c 81 01  	ld	s8, 24(sp)
80007008: 93 97 e7 03  	slli	a5, a5, 62
8000700c: 13 07 fa ff  	addi	a4, s4, -1
80007010: b3 77 fc 00  	and	a5, s8, a5
80007014: 63 94 07 0c  	bnez	a5, 0x800070dc <softfloat_mulAddF64+0x4b8>
80007018: 13 1c 1c 00  	slli	s8, s8, 1
8000701c: 13 0a ea ff  	addi	s4, s4, -2
80007020: 6f f0 5f e0  	j	0x80006e24 <softfloat_mulAddF64+0x200>
80007024: 13 85 04 00  	mv	a0, s1
80007028: ef 00 40 16  	jal	0x8000718c <softfloat_normSubnormalF64Sig>
8000702c: 13 0b 05 00  	mv	s6, a0
80007030: 93 95 a5 00  	slli	a1, a1, 10
80007034: b3 09 6a 41  	sub	s3, s4, s6
80007038: b3 ed b5 01  	or	s11, a1, s11
8000703c: e3 dc 09 e2  	bgez	s3, 0x80006e74 <softfloat_mulAddF64+0x250>
80007040: b3 05 4b 41  	sub	a1, s6, s4
80007044: e3 8c aa f5  	beq	s5, s10, 0x80006f9c <softfloat_mulAddF64+0x378>
80007048: e3 94 29 f3  	bne	s3, s2, 0x80006f70 <softfloat_mulAddF64+0x34c>
8000704c: 93 06 01 01  	addi	a3, sp, 16
80007050: 13 06 10 00  	li	a2, 1
80007054: 93 85 06 00  	mv	a1, a3
80007058: 13 05 40 00  	li	a0, 4
8000705c: ef 00 40 7c  	jal	0x80007820 <softfloat_shortShiftRightM>
80007060: 93 09 f0 ff  	li	s3, -1
80007064: 6f f0 1f ea  	j	0x80006f04 <softfloat_mulAddF64+0x2e0>
80007068: 93 06 01 01  	addi	a3, sp, 16
8000706c: 13 06 01 02  	addi	a2, sp, 32
80007070: 93 85 06 00  	mv	a1, a3
80007074: 13 05 40 00  	li	a0, 4
80007078: ef 00 90 66  	jal	0x80007ee0 <softfloat_addM>
8000707c: 03 3c 81 01  	ld	s8, 24(sp)
80007080: 6f f0 1f f3  	j	0x80006fb0 <softfloat_mulAddF64+0x38c>
80007084: 23 3c f1 00  	sd	a5, 24(sp)
80007088: e3 dc 07 e0  	bgez	a5, 0x80006ea0 <softfloat_mulAddF64+0x27c>
8000708c: 33 84 8b 40  	sub	s0, s7, s0
80007090: 93 05 01 01  	addi	a1, sp, 16
80007094: 13 05 40 00  	li	a0, 4
80007098: 13 3d 14 00  	seqz	s10, s0
8000709c: ef 00 00 05  	jal	0x800070ec <softfloat_negXM>
800070a0: 6f f0 1f e0  	j	0x80006ea0 <softfloat_mulAddF64+0x27c>
800070a4: 93 c5 f9 ff  	not	a1, s3
800070a8: e3 9a 05 ee  	bnez	a1, 0x80006f9c <softfloat_mulAddF64+0x378>
800070ac: 13 0a 0b 00  	mv	s4, s6
800070b0: 6f f0 df ef  	j	0x80006fac <softfloat_mulAddF64+0x388>
800070b4: 93 06 01 01  	addi	a3, sp, 16
800070b8: 13 86 06 00  	mv	a2, a3
800070bc: 93 05 01 02  	addi	a1, sp, 32
800070c0: 13 05 40 00  	li	a0, 4
800070c4: 13 0a 0b 00  	mv	s4, s6
800070c8: 23 34 b1 03  	sd	s11, 40(sp)
800070cc: 23 30 01 02  	sd	zero, 32(sp)
800070d0: 13 8d 0a 00  	mv	s10, s5
800070d4: ef 00 90 06  	jal	0x8000793c <softfloat_subM>
800070d8: 6f f0 9f dc  	j	0x80006ea0 <softfloat_mulAddF64+0x27c>
800070dc: 13 0a 07 00  	mv	s4, a4
800070e0: 6f f0 5f d4  	j	0x80006e24 <softfloat_mulAddF64+0x200>
800070e4: 1b 05 f5 ff  	addiw	a0, a0, -1
800070e8: 6f f0 1f dd  	j	0x80006eb8 <softfloat_mulAddF64+0x294>

00000000800070ec <softfloat_negXM>:
800070ec: 83 a7 05 00  	lw	a5, 0(a1)
800070f0: 13 07 10 00  	li	a4, 1
800070f4: bb 07 f0 40  	negw	a5, a5
800070f8: 23 a0 f5 00  	sw	a5, 0(a1)
800070fc: 63 02 e5 04  	beq	a0, a4, 0x80007140 <softfloat_negXM+0x54>
80007100: 1b 07 e5 ff  	addiw	a4, a0, -2
80007104: 13 17 07 02  	slli	a4, a4, 32
80007108: 93 86 85 00  	addi	a3, a1, 8
8000710c: 13 57 e7 01  	srli	a4, a4, 30
80007110: 93 85 45 00  	addi	a1, a1, 4
80007114: 33 07 d7 00  	add	a4, a4, a3
80007118: 13 06 10 00  	li	a2, 1
8000711c: 63 84 07 02  	beqz	a5, 0x80007144 <softfloat_negXM+0x58>
80007120: 93 06 00 00  	li	a3, 0
80007124: 13 06 00 00  	li	a2, 0
80007128: 83 a7 05 00  	lw	a5, 0(a1)
8000712c: 93 85 45 00  	addi	a1, a1, 4
80007130: 93 c7 f7 ff  	not	a5, a5
80007134: bb 87 d7 00  	addw	a5, a5, a3
80007138: 23 ae f5 fe  	sw	a5, -4(a1)
8000713c: e3 10 b7 fe  	bne	a4, a1, 0x8000711c <softfloat_negXM+0x30>
80007140: 67 80 00 00  	ret
80007144: 9b 06 06 00  	sext.w	a3, a2
80007148: 6f f0 1f fe  	j	0x80007128 <softfloat_negXM+0x3c>

000000008000714c <softfloat_normSubnormalF32Sig>:
8000714c: 13 01 01 fe  	addi	sp, sp, -32
80007150: 23 38 81 00  	sd	s0, 16(sp)
80007154: 13 04 05 00  	mv	s0, a0
80007158: 1b 05 05 00  	sext.w	a0, a0
8000715c: 23 3c 11 00  	sd	ra, 24(sp)
80007160: ef 00 d0 5e  	jal	0x80007f4c <softfloat_countLeadingZeros32>
80007164: 9b 05 85 ff  	addiw	a1, a0, -8
80007168: 83 30 81 01  	ld	ra, 24(sp)
8000716c: 1b 97 85 01  	slliw	a4, a1, 24
80007170: b3 15 b4 00  	sll	a1, s0, a1
80007174: 03 34 01 01  	ld	s0, 16(sp)
80007178: 1b 57 87 41  	sraiw	a4, a4, 24
8000717c: 13 05 10 00  	li	a0, 1
80007180: 3b 05 e5 40  	subw	a0, a0, a4
80007184: 13 01 01 02  	addi	sp, sp, 32
80007188: 67 80 00 00  	ret

000000008000718c <softfloat_normSubnormalF64Sig>:
8000718c: 13 01 01 fe  	addi	sp, sp, -32
80007190: 23 38 81 00  	sd	s0, 16(sp)
80007194: 23 3c 11 00  	sd	ra, 24(sp)
80007198: 13 04 05 00  	mv	s0, a0
8000719c: ef 00 90 5f  	jal	0x80007f94 <softfloat_countLeadingZeros64>
800071a0: 9b 05 55 ff  	addiw	a1, a0, -11
800071a4: 83 30 81 01  	ld	ra, 24(sp)
800071a8: 1b 97 85 01  	slliw	a4, a1, 24
800071ac: b3 15 b4 00  	sll	a1, s0, a1
800071b0: 03 34 01 01  	ld	s0, 16(sp)
800071b4: 1b 57 87 41  	sraiw	a4, a4, 24
800071b8: 13 05 10 00  	li	a0, 1
800071bc: 3b 05 e5 40  	subw	a0, a0, a4
800071c0: 13 01 01 02  	addi	sp, sp, 32
800071c4: 67 80 00 00  	ret

00000000800071c8 <softfloat_roundMToUI64>:
800071c8: 83 e7 85 00  	lwu	a5, 8(a1)
800071cc: 83 e8 45 00  	lwu	a7, 4(a1)
800071d0: 13 78 b6 0f  	andi	a6, a2, 251
800071d4: 93 97 07 02  	slli	a5, a5, 32
800071d8: 13 07 05 00  	mv	a4, a0
800071dc: 83 a5 05 00  	lw	a1, 0(a1)
800071e0: 33 e5 17 01  	or	a0, a5, a7
800071e4: 63 06 08 02  	beqz	a6, 0x80007210 <softfloat_roundMToUI64+0x48>
800071e8: 63 0a 07 04  	beqz	a4, 0x8000723c <softfloat_roundMToUI64+0x74>
800071ec: 93 97 05 02  	slli	a5, a1, 32
800071f0: 93 d7 07 02  	srli	a5, a5, 32
800071f4: b3 e7 a7 00  	or	a5, a5, a0
800071f8: 63 8a 07 06  	beqz	a5, 0x8000726c <softfloat_roundMToUI64+0xa4>
800071fc: 93 07 20 00  	li	a5, 2
80007200: 63 0e f6 04  	beq	a2, a5, 0x8000725c <softfloat_roundMToUI64+0x94>
80007204: 63 1c 05 04  	bnez	a0, 0x8000725c <softfloat_roundMToUI64+0x94>
80007208: 63 94 05 02  	bnez	a1, 0x80007230 <softfloat_roundMToUI64+0x68>
8000720c: 67 80 00 00  	ret
80007210: 63 cc 05 02  	bltz	a1, 0x80007248 <softfloat_roundMToUI64+0x80>
80007214: e3 0a 07 fe  	beqz	a4, 0x80007208 <softfloat_roundMToUI64+0x40>
80007218: e3 08 05 fe  	beqz	a0, 0x80007208 <softfloat_roundMToUI64+0x40>
8000721c: 6f 00 00 04  	j	0x8000725c <softfloat_roundMToUI64+0x94>
80007220: 63 1a 06 04  	bnez	a2, 0x80007274 <softfloat_roundMToUI64+0xac>
80007224: 13 75 e5 ff  	andi	a0, a0, -2
80007228: 63 04 07 00  	beqz	a4, 0x80007230 <softfloat_roundMToUI64+0x68>
8000722c: 63 18 05 02  	bnez	a0, 0x8000725c <softfloat_roundMToUI64+0x94>
80007230: e3 8e 06 fc  	beqz	a3, 0x8000720c <softfloat_roundMToUI64+0x44>
80007234: f3 e7 10 00  	csrrsi	a5, fflags, 1
80007238: 67 80 00 00  	ret
8000723c: 93 07 30 00  	li	a5, 3
80007240: e3 14 f6 fc  	bne	a2, a5, 0x80007208 <softfloat_roundMToUI64+0x40>
80007244: e3 84 05 fc  	beqz	a1, 0x8000720c <softfloat_roundMToUI64+0x44>
80007248: 13 05 15 00  	addi	a0, a0, 1
8000724c: 63 08 05 00  	beqz	a0, 0x8000725c <softfloat_roundMToUI64+0x94>
80007250: b7 07 00 80  	lui	a5, 524288
80007254: e3 86 f5 fc  	beq	a1, a5, 0x80007220 <softfloat_roundMToUI64+0x58>
80007258: e3 08 07 fa  	beqz	a4, 0x80007208 <softfloat_roundMToUI64+0x40>
8000725c: f3 67 18 00  	csrrsi	a5, fflags, 16
80007260: 13 45 17 00  	xori	a0, a4, 1
80007264: 33 05 a0 40  	neg	a0, a0
80007268: 67 80 00 00  	ret
8000726c: 13 05 00 00  	li	a0, 0
80007270: 67 80 00 00  	ret
80007274: e3 14 07 fe  	bnez	a4, 0x8000725c <softfloat_roundMToUI64+0x94>
80007278: 6f f0 9f fb  	j	0x80007230 <softfloat_roundMToUI64+0x68>

000000008000727c <softfloat_roundPackToF32>:
8000727c: 13 01 01 fe  	addi	sp, sp, -32
80007280: 23 38 81 00  	sd	s0, 16(sp)
80007284: 23 34 91 00  	sd	s1, 8(sp)
80007288: 23 30 21 01  	sd	s2, 0(sp)
8000728c: 23 3c 11 00  	sd	ra, 24(sp)
80007290: 13 77 b2 0f  	andi	a4, tp, 251
80007294: 13 04 05 00  	mv	s0, a0
80007298: 93 74 f2 0f  	andi	s1, tp, 255
8000729c: 13 09 00 04  	li	s2, 64
800072a0: 63 0c 07 00  	beqz	a4, 0x800072b8 <softfloat_roundPackToF32+0x3c>
800072a4: 93 37 15 00  	seqz	a5, a0
800072a8: 93 87 27 00  	addi	a5, a5, 2
800072ac: 13 09 f0 07  	li	s2, 127
800072b0: 63 84 f4 00  	beq	s1, a5, 0x800072b8 <softfloat_roundPackToF32+0x3c>
800072b4: 13 09 00 00  	li	s2, 0
800072b8: 9b 87 05 00  	sext.w	a5, a1
800072bc: 13 07 c0 0f  	li	a4, 252
800072c0: 13 75 f6 07  	andi	a0, a2, 127
800072c4: 63 70 f7 04  	bgeu	a4, a5, 0x80007304 <softfloat_roundPackToF32+0x88>
800072c8: 63 cc 05 08  	bltz	a1, 0x80007360 <softfloat_roundPackToF32+0xe4>
800072cc: 93 07 d0 0f  	li	a5, 253
800072d0: 63 86 f5 0c  	beq	a1, a5, 0x8000739c <softfloat_roundPackToF32+0x120>
800072d4: f3 e7 12 00  	csrrsi	a5, fflags, 5
800072d8: 83 30 81 01  	ld	ra, 24(sp)
800072dc: 1b 15 f4 01  	slliw	a0, s0, 31
800072e0: 03 34 01 01  	ld	s0, 16(sp)
800072e4: 37 06 80 7f  	lui	a2, 522240
800072e8: 3b 05 c5 00  	addw	a0, a0, a2
800072ec: 13 36 19 00  	seqz	a2, s2
800072f0: 83 34 81 00  	ld	s1, 8(sp)
800072f4: 03 39 01 00  	ld	s2, 0(sp)
800072f8: 3b 05 c5 40  	subw	a0, a0, a2
800072fc: 13 01 01 02  	addi	sp, sp, 32
80007300: 67 80 00 00  	ret
80007304: 33 06 c9 00  	add	a2, s2, a2
80007308: 13 56 76 00  	srli	a2, a2, 7
8000730c: 63 00 05 02  	beqz	a0, 0x8000732c <softfloat_roundPackToF32+0xb0>
80007310: f3 e7 10 00  	csrrsi	a5, fflags, 1
80007314: 13 05 05 fc  	addi	a0, a0, -64
80007318: 13 35 15 00  	seqz	a0, a0
8000731c: 93 b7 14 00  	seqz	a5, s1
80007320: 33 f5 a7 00  	and	a0, a5, a0
80007324: 13 45 f5 ff  	not	a0, a0
80007328: 33 76 a6 00  	and	a2, a2, a0
8000732c: 93 07 00 00  	li	a5, 0
80007330: 63 14 06 02  	bnez	a2, 0x80007358 <softfloat_roundPackToF32+0xdc>
80007334: 83 30 81 01  	ld	ra, 24(sp)
80007338: 1b 15 f4 01  	slliw	a0, s0, 31
8000733c: 03 34 01 01  	ld	s0, 16(sp)
80007340: 3b 05 f5 00  	addw	a0, a0, a5
80007344: 83 34 81 00  	ld	s1, 8(sp)
80007348: 03 39 01 00  	ld	s2, 0(sp)
8000734c: 3b 05 c5 00  	addw	a0, a0, a2
80007350: 13 01 01 02  	addi	sp, sp, 32
80007354: 67 80 00 00  	ret
80007358: 9b 97 75 01  	slliw	a5, a1, 23
8000735c: 6f f0 9f fd  	j	0x80007334 <softfloat_roundPackToF32+0xb8>
80007360: 93 07 f0 ff  	li	a5, -1
80007364: 1b 05 06 00  	sext.w	a0, a2
80007368: 63 84 f5 04  	beq	a1, a5, 0x800073b0 <softfloat_roundPackToF32+0x134>
8000736c: b3 05 b0 40  	neg	a1, a1
80007370: ef 00 c0 2a  	jal	0x8000761c <softfloat_shiftRightJam32>
80007374: 13 16 05 02  	slli	a2, a0, 32
80007378: 13 56 06 02  	srli	a2, a2, 32
8000737c: 33 06 26 01  	add	a2, a2, s2
80007380: 13 75 f5 07  	andi	a0, a0, 127
80007384: 13 56 76 00  	srli	a2, a2, 7
80007388: 93 05 00 00  	li	a1, 0
8000738c: e3 00 05 fa  	beqz	a0, 0x8000732c <softfloat_roundPackToF32+0xb0>
80007390: f3 67 11 00  	csrrsi	a5, fflags, 2
80007394: 93 05 00 00  	li	a1, 0
80007398: 6f f0 9f f7  	j	0x80007310 <softfloat_roundPackToF32+0x94>
8000739c: b7 07 00 80  	lui	a5, 524288
800073a0: 33 06 c9 00  	add	a2, s2, a2
800073a4: 93 c7 f7 ff  	not	a5, a5
800073a8: e3 f0 c7 f6  	bgeu	a5, a2, 0x80007308 <softfloat_roundPackToF32+0x8c>
800073ac: 6f f0 9f f2  	j	0x800072d4 <softfloat_roundPackToF32+0x58>
800073b0: b7 07 00 80  	lui	a5, 524288
800073b4: 33 06 26 01  	add	a2, a2, s2
800073b8: 93 c7 f7 ff  	not	a5, a5
800073bc: e3 f8 c7 fa  	bgeu	a5, a2, 0x8000736c <softfloat_roundPackToF32+0xf0>
800073c0: 93 05 10 00  	li	a1, 1
800073c4: ef 00 80 25  	jal	0x8000761c <softfloat_shiftRightJam32>
800073c8: 13 16 05 02  	slli	a2, a0, 32
800073cc: 13 56 06 02  	srli	a2, a2, 32
800073d0: 13 75 f5 07  	andi	a0, a0, 127
800073d4: 33 06 26 01  	add	a2, a2, s2
800073d8: 93 05 00 00  	li	a1, 0
800073dc: 6f f0 df f2  	j	0x80007308 <softfloat_roundPackToF32+0x8c>

00000000800073e0 <softfloat_roundPackToF64>:
800073e0: 13 01 01 fe  	addi	sp, sp, -32
800073e4: 23 38 81 00  	sd	s0, 16(sp)
800073e8: 23 34 91 00  	sd	s1, 8(sp)
800073ec: 23 30 21 01  	sd	s2, 0(sp)
800073f0: 23 3c 11 00  	sd	ra, 24(sp)
800073f4: 93 77 b2 0f  	andi	a5, tp, 251
800073f8: 13 04 05 00  	mv	s0, a0
800073fc: 13 79 f2 0f  	andi	s2, tp, 255
80007400: 93 04 00 20  	li	s1, 512
80007404: 63 8c 07 00  	beqz	a5, 0x8000741c <softfloat_roundPackToF64+0x3c>
80007408: 93 37 15 00  	seqz	a5, a0
8000740c: 93 87 27 00  	addi	a5, a5, 2
80007410: 93 04 f0 3f  	li	s1, 1023
80007414: 63 04 f9 00  	beq	s2, a5, 0x8000741c <softfloat_roundPackToF64+0x3c>
80007418: 93 04 00 00  	li	s1, 0
8000741c: 13 97 05 03  	slli	a4, a1, 48
80007420: 13 57 07 03  	srli	a4, a4, 48
80007424: 93 06 c0 7f  	li	a3, 2044
80007428: 93 77 f6 3f  	andi	a5, a2, 1023
8000742c: 63 f2 e6 04  	bgeu	a3, a4, 0x80007470 <softfloat_roundPackToF64+0x90>
80007430: 63 ce 05 08  	bltz	a1, 0x800074cc <softfloat_roundPackToF64+0xec>
80007434: 13 07 d0 7f  	li	a4, 2045
80007438: 63 82 e5 0c  	beq	a1, a4, 0x800074fc <softfloat_roundPackToF64+0x11c>
8000743c: f3 e7 12 00  	csrrsi	a5, fflags, 5
80007440: 13 15 f4 03  	slli	a0, s0, 63
80007444: 13 04 f0 7f  	li	s0, 2047
80007448: 13 14 44 03  	slli	s0, s0, 52
8000744c: 83 30 81 01  	ld	ra, 24(sp)
80007450: 33 05 85 00  	add	a0, a0, s0
80007454: 03 34 01 01  	ld	s0, 16(sp)
80007458: 93 b4 14 00  	seqz	s1, s1
8000745c: 03 39 01 00  	ld	s2, 0(sp)
80007460: 33 05 95 40  	sub	a0, a0, s1
80007464: 83 34 81 00  	ld	s1, 8(sp)
80007468: 13 01 01 02  	addi	sp, sp, 32
8000746c: 67 80 00 00  	ret
80007470: 33 86 c4 00  	add	a2, s1, a2
80007474: 13 56 a6 00  	srli	a2, a2, 10
80007478: 63 80 07 02  	beqz	a5, 0x80007498 <softfloat_roundPackToF64+0xb8>
8000747c: 73 e7 10 00  	csrrsi	a4, fflags, 1
80007480: 93 87 07 e0  	addi	a5, a5, -512
80007484: 13 39 19 00  	seqz	s2, s2
80007488: 93 b7 17 00  	seqz	a5, a5
8000748c: b3 f7 27 01  	and	a5, a5, s2
80007490: 93 c7 f7 ff  	not	a5, a5
80007494: 33 76 f6 00  	and	a2, a2, a5
80007498: 93 07 00 00  	li	a5, 0
8000749c: 63 14 06 02  	bnez	a2, 0x800074c4 <softfloat_roundPackToF64+0xe4>
800074a0: 13 15 f4 03  	slli	a0, s0, 63
800074a4: 83 30 81 01  	ld	ra, 24(sp)
800074a8: 03 34 01 01  	ld	s0, 16(sp)
800074ac: 33 06 c5 00  	add	a2, a0, a2
800074b0: 83 34 81 00  	ld	s1, 8(sp)
800074b4: 03 39 01 00  	ld	s2, 0(sp)
800074b8: 33 05 f6 00  	add	a0, a2, a5
800074bc: 13 01 01 02  	addi	sp, sp, 32
800074c0: 67 80 00 00  	ret
800074c4: 93 97 45 03  	slli	a5, a1, 52
800074c8: 6f f0 9f fd  	j	0x800074a0 <softfloat_roundPackToF64+0xc0>
800074cc: 93 07 f0 ff  	li	a5, -1
800074d0: 63 8c f5 02  	beq	a1, a5, 0x80007508 <softfloat_roundPackToF64+0x128>
800074d4: b3 05 b0 40  	neg	a1, a1
800074d8: 13 05 06 00  	mv	a0, a2
800074dc: ef 00 c0 16  	jal	0x80007648 <softfloat_shiftRightJam64>
800074e0: 93 77 f5 3f  	andi	a5, a0, 1023
800074e4: 63 84 07 04  	beqz	a5, 0x8000752c <softfloat_roundPackToF64+0x14c>
800074e8: 73 67 11 00  	csrrsi	a4, fflags, 2
800074ec: 33 86 a4 00  	add	a2, s1, a0
800074f0: 13 56 a6 00  	srli	a2, a2, 10
800074f4: 93 05 00 00  	li	a1, 0
800074f8: 6f f0 5f f8  	j	0x8000747c <softfloat_roundPackToF64+0x9c>
800074fc: 33 86 c4 00  	add	a2, s1, a2
80007500: e3 5a 06 f6  	bgez	a2, 0x80007474 <softfloat_roundPackToF64+0x94>
80007504: 6f f0 9f f3  	j	0x8000743c <softfloat_roundPackToF64+0x5c>
80007508: b3 87 c4 00  	add	a5, s1, a2
8000750c: e3 d4 07 fc  	bgez	a5, 0x800074d4 <softfloat_roundPackToF64+0xf4>
80007510: 93 05 10 00  	li	a1, 1
80007514: 13 05 06 00  	mv	a0, a2
80007518: ef 00 00 13  	jal	0x80007648 <softfloat_shiftRightJam64>
8000751c: 93 77 f5 3f  	andi	a5, a0, 1023
80007520: 33 86 a4 00  	add	a2, s1, a0
80007524: 93 05 00 00  	li	a1, 0
80007528: 6f f0 df f4  	j	0x80007474 <softfloat_roundPackToF64+0x94>
8000752c: 33 86 a4 00  	add	a2, s1, a0
80007530: 13 56 a6 00  	srli	a2, a2, 10
80007534: 93 05 00 00  	li	a1, 0
80007538: 6f f0 1f f6  	j	0x80007498 <softfloat_roundPackToF64+0xb8>

000000008000753c <softfloat_shiftLeftM>:
8000753c: 13 01 01 fe  	addi	sp, sp, -32
80007540: 23 38 81 00  	sd	s0, 16(sp)
80007544: 23 34 91 00  	sd	s1, 8(sp)
80007548: 23 3c 11 00  	sd	ra, 24(sp)
8000754c: 9b 54 56 00  	srliw	s1, a2, 5
80007550: 13 84 06 00  	mv	s0, a3
80007554: 9b 07 05 00  	sext.w	a5, a0
80007558: 63 f6 a4 06  	bgeu	s1, a0, 0x800075c4 <softfloat_shiftLeftM+0x88>
8000755c: 1b 57 56 00  	srliw	a4, a2, 5
80007560: bb 08 e5 40  	subw	a7, a0, a4
80007564: 13 76 f6 01  	andi	a2, a2, 31
80007568: 93 f8 f8 0f  	andi	a7, a7, 255
8000756c: 63 18 06 08  	bnez	a2, 0x800075fc <softfloat_shiftLeftM+0xc0>
80007570: 9b 87 f7 ff  	addiw	a5, a5, -1
80007574: bb 87 e7 40  	subw	a5, a5, a4
80007578: 93 97 07 02  	slli	a5, a5, 32
8000757c: 93 d7 07 02  	srli	a5, a5, 32
80007580: 13 17 25 00  	slli	a4, a0, 2
80007584: 93 97 27 00  	slli	a5, a5, 2
80007588: 13 07 c7 ff  	addi	a4, a4, -4
8000758c: b3 87 f5 00  	add	a5, a1, a5
80007590: 33 87 e6 00  	add	a4, a3, a4
80007594: 63 86 08 02  	beqz	a7, 0x800075c0 <softfloat_shiftLeftM+0x84>
80007598: 9b 86 f8 ff  	addiw	a3, a7, -1
8000759c: 93 f6 f6 0f  	andi	a3, a3, 255
800075a0: 93 c6 f6 ff  	not	a3, a3
800075a4: 93 96 26 00  	slli	a3, a3, 2
800075a8: b3 06 d7 00  	add	a3, a4, a3
800075ac: 03 a6 07 00  	lw	a2, 0(a5)
800075b0: 13 07 c7 ff  	addi	a4, a4, -4
800075b4: 93 87 c7 ff  	addi	a5, a5, -4
800075b8: 23 22 c7 00  	sw	a2, 4(a4)
800075bc: e3 18 d7 fe  	bne	a4, a3, 0x800075ac <softfloat_shiftLeftM+0x70>
800075c0: 93 87 04 00  	mv	a5, s1
800075c4: 9b 87 f7 ff  	addiw	a5, a5, -1
800075c8: 93 97 07 02  	slli	a5, a5, 32
800075cc: 93 d7 07 02  	srli	a5, a5, 32
800075d0: 93 87 17 00  	addi	a5, a5, 1
800075d4: 93 97 27 00  	slli	a5, a5, 2
800075d8: b3 07 f4 00  	add	a5, s0, a5
800075dc: 13 04 44 00  	addi	s0, s0, 4
800075e0: 23 2e 04 fe  	sw	zero, -4(s0)
800075e4: e3 9c 87 fe  	bne	a5, s0, 0x800075dc <softfloat_shiftLeftM+0xa0>
800075e8: 83 30 81 01  	ld	ra, 24(sp)
800075ec: 03 34 01 01  	ld	s0, 16(sp)
800075f0: 83 34 81 00  	ld	s1, 8(sp)
800075f4: 13 01 01 02  	addi	sp, sp, 32
800075f8: 67 80 00 00  	ret
800075fc: 93 17 07 02  	slli	a5, a4, 32
80007600: 93 d6 e7 01  	srli	a3, a5, 30
80007604: b3 06 d4 00  	add	a3, s0, a3
80007608: 13 85 08 00  	mv	a0, a7
8000760c: ef 00 80 1a  	jal	0x800077b4 <softfloat_shortShiftLeftM>
80007610: 93 87 04 00  	mv	a5, s1
80007614: e3 98 04 fa  	bnez	s1, 0x800075c4 <softfloat_shiftLeftM+0x88>
80007618: 6f f0 1f fd  	j	0x800075e8 <softfloat_shiftLeftM+0xac>

000000008000761c <softfloat_shiftRightJam32>:
8000761c: 93 07 e0 01  	li	a5, 30
80007620: 63 e0 b7 02  	bltu	a5, a1, 0x80007640 <softfloat_shiftRightJam32+0x24>
80007624: bb 07 b0 40  	negw	a5, a1
80007628: bb 17 f5 00  	sllw	a5, a0, a5
8000762c: b3 37 f0 00  	snez	a5, a5
80007630: 3b 55 b5 00  	srlw	a0, a0, a1
80007634: 33 e5 a7 00  	or	a0, a5, a0
80007638: 1b 05 05 00  	sext.w	a0, a0
8000763c: 67 80 00 00  	ret
80007640: 33 35 a0 00  	snez	a0, a0
80007644: 67 80 00 00  	ret

0000000080007648 <softfloat_shiftRightJam64>:
80007648: 93 07 e0 03  	li	a5, 62
8000764c: 63 ee b7 00  	bltu	a5, a1, 0x80007668 <softfloat_shiftRightJam64+0x20>
80007650: bb 07 b0 40  	negw	a5, a1
80007654: b3 17 f5 00  	sll	a5, a0, a5
80007658: b3 37 f0 00  	snez	a5, a5
8000765c: 33 55 b5 00  	srl	a0, a0, a1
80007660: 33 e5 a7 00  	or	a0, a5, a0
80007664: 67 80 00 00  	ret
80007668: 33 35 a0 00  	snez	a0, a0
8000766c: 67 80 00 00  	ret

0000000080007670 <softfloat_shiftRightJamM>:
80007670: 13 01 01 fd  	addi	sp, sp, -48
80007674: 23 3c 91 00  	sd	s1, 24(sp)
80007678: 23 38 21 01  	sd	s2, 16(sp)
8000767c: 23 34 31 01  	sd	s3, 8(sp)
80007680: 23 34 11 02  	sd	ra, 40(sp)
80007684: 23 30 81 02  	sd	s0, 32(sp)
80007688: 9b 54 56 00  	srliw	s1, a2, 5
8000768c: 13 89 06 00  	mv	s2, a3
80007690: 9b 09 05 00  	sext.w	s3, a0
80007694: 63 86 04 0e  	beqz	s1, 0x80007780 <softfloat_shiftRightJamM+0x110>
80007698: 1b 54 56 00  	srliw	s0, a2, 5
8000769c: 63 e8 99 0e  	bltu	s3, s1, 0x8000778c <softfloat_shiftRightJamM+0x11c>
800076a0: 9b 06 f4 ff  	addiw	a3, s0, -1
800076a4: 93 f6 f6 0f  	andi	a3, a3, 255
800076a8: 93 86 16 00  	addi	a3, a3, 1
800076ac: 93 96 26 00  	slli	a3, a3, 2
800076b0: b3 86 d5 00  	add	a3, a1, a3
800076b4: 13 87 05 00  	mv	a4, a1
800076b8: 6f 00 80 00  	j	0x800076c0 <softfloat_shiftRightJamM+0x50>
800076bc: 63 08 d7 00  	beq	a4, a3, 0x800076cc <softfloat_shiftRightJamM+0x5c>
800076c0: 83 24 07 00  	lw	s1, 0(a4)
800076c4: 13 07 47 00  	addi	a4, a4, 4
800076c8: e3 8a 04 fe  	beqz	s1, 0x800076bc <softfloat_shiftRightJamM+0x4c>
800076cc: 93 07 09 00  	mv	a5, s2
800076d0: 63 70 34 07  	bgeu	s0, s3, 0x80007730 <softfloat_shiftRightJamM+0xc0>
800076d4: 93 17 04 02  	slli	a5, s0, 32
800076d8: 93 d7 e7 01  	srli	a5, a5, 30
800076dc: 3b 05 85 40  	subw	a0, a0, s0
800076e0: 13 76 f6 01  	andi	a2, a2, 31
800076e4: b3 85 f5 00  	add	a1, a1, a5
800076e8: 13 75 f5 0f  	andi	a0, a0, 255
800076ec: 63 14 06 0a  	bnez	a2, 0x80007794 <softfloat_shiftRightJamM+0x124>
800076f0: 63 08 05 02  	beqz	a0, 0x80007720 <softfloat_shiftRightJamM+0xb0>
800076f4: 1b 07 f5 ff  	addiw	a4, a0, -1
800076f8: 13 77 f7 0f  	andi	a4, a4, 255
800076fc: 13 07 17 00  	addi	a4, a4, 1
80007700: 13 17 27 00  	slli	a4, a4, 2
80007704: 33 07 e9 00  	add	a4, s2, a4
80007708: 13 06 09 00  	mv	a2, s2
8000770c: 83 a7 05 00  	lw	a5, 0(a1)
80007710: 13 06 46 00  	addi	a2, a2, 4
80007714: 93 85 45 00  	addi	a1, a1, 4
80007718: 23 2e f6 fe  	sw	a5, -4(a2)
8000771c: e3 18 e6 fe  	bne	a2, a4, 0x8000770c <softfloat_shiftRightJamM+0x9c>
80007720: bb 87 89 40  	subw	a5, s3, s0
80007724: 93 97 07 02  	slli	a5, a5, 32
80007728: 93 d7 e7 01  	srli	a5, a5, 30
8000772c: b3 07 f9 00  	add	a5, s2, a5
80007730: 1b 07 f4 ff  	addiw	a4, s0, -1
80007734: 13 17 07 02  	slli	a4, a4, 32
80007738: 13 57 07 02  	srli	a4, a4, 32
8000773c: 13 07 17 00  	addi	a4, a4, 1
80007740: 13 17 27 00  	slli	a4, a4, 2
80007744: 33 87 e7 00  	add	a4, a5, a4
80007748: 93 87 47 00  	addi	a5, a5, 4
8000774c: 23 ae 07 fe  	sw	zero, -4(a5)
80007750: e3 1c f7 fe  	bne	a4, a5, 0x80007748 <softfloat_shiftRightJamM+0xd8>
80007754: 63 88 04 00  	beqz	s1, 0x80007764 <softfloat_shiftRightJamM+0xf4>
80007758: 83 27 09 00  	lw	a5, 0(s2)
8000775c: 93 e7 17 00  	ori	a5, a5, 1
80007760: 23 20 f9 00  	sw	a5, 0(s2)
80007764: 83 30 81 02  	ld	ra, 40(sp)
80007768: 03 34 01 02  	ld	s0, 32(sp)
8000776c: 83 34 81 01  	ld	s1, 24(sp)
80007770: 03 39 01 01  	ld	s2, 16(sp)
80007774: 83 39 81 00  	ld	s3, 8(sp)
80007778: 13 01 01 03  	addi	sp, sp, 48
8000777c: 67 80 00 00  	ret
80007780: 13 04 00 00  	li	s0, 0
80007784: 93 07 00 00  	li	a5, 0
80007788: 6f f0 9f f4  	j	0x800076d0 <softfloat_shiftRightJamM+0x60>
8000778c: 1b 84 09 00  	sext.w	s0, s3
80007790: 6f f0 1f f1  	j	0x800076a0 <softfloat_shiftRightJamM+0x30>
80007794: 93 06 09 00  	mv	a3, s2
80007798: ef 00 c0 11  	jal	0x800078b4 <softfloat_shortShiftRightJamM>
8000779c: e3 0c 04 fa  	beqz	s0, 0x80007754 <softfloat_shiftRightJamM+0xe4>
800077a0: bb 87 89 40  	subw	a5, s3, s0
800077a4: 93 97 07 02  	slli	a5, a5, 32
800077a8: 93 d7 e7 01  	srli	a5, a5, 30
800077ac: b3 07 f9 00  	add	a5, s2, a5
800077b0: 6f f0 1f f8  	j	0x80007730 <softfloat_shiftRightJamM+0xc0>

00000000800077b4 <softfloat_shortShiftLeftM>:
800077b4: 1b 08 f5 ff  	addiw	a6, a0, -1
800077b8: 13 17 08 02  	slli	a4, a6, 32
800077bc: 13 57 e7 01  	srli	a4, a4, 30
800077c0: b3 87 e5 00  	add	a5, a1, a4
800077c4: 83 a7 07 00  	lw	a5, 0(a5)
800077c8: 3b 03 c0 40  	negw	t1, a2
800077cc: 1b 0e 06 00  	sext.w	t3, a2
800077d0: 13 73 f3 0f  	andi	t1, t1, 255
800077d4: 3b 96 c7 00  	sllw	a2, a5, a2
800077d8: 63 00 08 04  	beqz	a6, 0x80007818 <softfloat_shortShiftLeftM+0x64>
800077dc: 9b 07 e5 ff  	addiw	a5, a0, -2
800077e0: 93 97 07 02  	slli	a5, a5, 32
800077e4: 93 d7 e7 01  	srli	a5, a5, 30
800077e8: 13 73 f3 01  	andi	t1, t1, 31
800077ec: b3 87 f5 00  	add	a5, a1, a5
800077f0: 33 87 e6 00  	add	a4, a3, a4
800077f4: 03 a5 07 00  	lw	a0, 0(a5)
800077f8: 13 07 c7 ff  	addi	a4, a4, -4
800077fc: 13 88 07 00  	mv	a6, a5
80007800: bb 58 65 00  	srlw	a7, a0, t1
80007804: 33 66 16 01  	or	a2, a2, a7
80007808: 23 22 c7 00  	sw	a2, 4(a4)
8000780c: 93 87 c7 ff  	addi	a5, a5, -4
80007810: 3b 16 c5 01  	sllw	a2, a0, t3
80007814: e3 90 05 ff  	bne	a1, a6, 0x800077f4 <softfloat_shortShiftLeftM+0x40>
80007818: 23 a0 c6 00  	sw	a2, 0(a3)
8000781c: 67 80 00 00  	ret

0000000080007820 <softfloat_shortShiftRightM>:
80007820: 83 a7 05 00  	lw	a5, 0(a1)
80007824: 1b 0e f5 ff  	addiw	t3, a0, -1
80007828: bb 08 c0 40  	negw	a7, a2
8000782c: 1b 07 0e 00  	sext.w	a4, t3
80007830: 1b 03 06 00  	sext.w	t1, a2
80007834: 93 f8 f8 0f  	andi	a7, a7, 255
80007838: 3b d6 c7 00  	srlw	a2, a5, a2
8000783c: 63 08 07 04  	beqz	a4, 0x8000788c <softfloat_shortShiftRightM+0x6c>
80007840: 1b 05 e5 ff  	addiw	a0, a0, -2
80007844: 13 15 05 02  	slli	a0, a0, 32
80007848: 13 87 85 00  	addi	a4, a1, 8
8000784c: 13 55 e5 01  	srli	a0, a0, 30
80007850: 93 f8 f8 01  	andi	a7, a7, 31
80007854: 93 85 45 00  	addi	a1, a1, 4
80007858: 93 87 06 00  	mv	a5, a3
8000785c: 33 05 e5 00  	add	a0, a0, a4
80007860: 03 a7 05 00  	lw	a4, 0(a1)
80007864: 93 87 47 00  	addi	a5, a5, 4
80007868: 93 85 45 00  	addi	a1, a1, 4
8000786c: 3b 18 17 01  	sllw	a6, a4, a7
80007870: 33 66 06 01  	or	a2, a2, a6
80007874: 23 ae c7 fe  	sw	a2, -4(a5)
80007878: 3b 56 67 00  	srlw	a2, a4, t1
8000787c: e3 92 a5 fe  	bne	a1, a0, 0x80007860 <softfloat_shortShiftRightM+0x40>
80007880: 13 1e 0e 02  	slli	t3, t3, 32
80007884: 13 5e ee 01  	srli	t3, t3, 30
80007888: b3 86 c6 01  	add	a3, a3, t3
8000788c: 23 a0 c6 00  	sw	a2, 0(a3)
80007890: 67 80 00 00  	ret

0000000080007894 <softfloat_shortShiftRightJam64>:
80007894: 93 07 f0 ff  	li	a5, -1
80007898: b3 97 b7 00  	sll	a5, a5, a1
8000789c: 93 c7 f7 ff  	not	a5, a5
800078a0: b3 f7 a7 00  	and	a5, a5, a0
800078a4: b3 37 f0 00  	snez	a5, a5
800078a8: 33 55 b5 00  	srl	a0, a0, a1
800078ac: 33 e5 a7 00  	or	a0, a5, a0
800078b0: 67 80 00 00  	ret

00000000800078b4 <softfloat_shortShiftRightJamM>:
800078b4: 03 a8 05 00  	lw	a6, 0(a1)
800078b8: 3b 03 c0 40  	negw	t1, a2
800078bc: 1b 0e f5 ff  	addiw	t3, a0, -1
800078c0: 3b 57 c8 00  	srlw	a4, a6, a2
800078c4: 3b 1f c7 00  	sllw	t5, a4, a2
800078c8: 13 73 f3 0f  	andi	t1, t1, 255
800078cc: 9b 0e 0e 00  	sext.w	t4, t3
800078d0: 9b 08 06 00  	sext.w	a7, a2
800078d4: 9b 07 07 00  	sext.w	a5, a4
800078d8: 63 06 0f 01  	beq	t5, a6, 0x800078e4 <softfloat_shortShiftRightJamM+0x30>
800078dc: 93 67 17 00  	ori	a5, a4, 1
800078e0: 9b 87 07 00  	sext.w	a5, a5
800078e4: 63 88 0e 04  	beqz	t4, 0x80007934 <softfloat_shortShiftRightJamM+0x80>
800078e8: 1b 05 e5 ff  	addiw	a0, a0, -2
800078ec: 13 15 05 02  	slli	a0, a0, 32
800078f0: 13 86 85 00  	addi	a2, a1, 8
800078f4: 13 55 e5 01  	srli	a0, a0, 30
800078f8: 13 73 f3 01  	andi	t1, t1, 31
800078fc: 93 85 45 00  	addi	a1, a1, 4
80007900: 13 87 06 00  	mv	a4, a3
80007904: 33 05 c5 00  	add	a0, a0, a2
80007908: 03 a6 05 00  	lw	a2, 0(a1)
8000790c: 13 07 47 00  	addi	a4, a4, 4
80007910: 93 85 45 00  	addi	a1, a1, 4
80007914: 3b 18 66 00  	sllw	a6, a2, t1
80007918: b3 e7 07 01  	or	a5, a5, a6
8000791c: 23 2e f7 fe  	sw	a5, -4(a4)
80007920: bb 57 16 01  	srlw	a5, a2, a7
80007924: e3 92 a5 fe  	bne	a1, a0, 0x80007908 <softfloat_shortShiftRightJamM+0x54>
80007928: 13 1e 0e 02  	slli	t3, t3, 32
8000792c: 13 5e ee 01  	srli	t3, t3, 30
80007930: b3 86 c6 01  	add	a3, a3, t3
80007934: 23 a0 f6 00  	sw	a5, 0(a3)
80007938: 67 80 00 00  	ret

000000008000793c <softfloat_subM>:
8000793c: 03 a7 05 00  	lw	a4, 0(a1)
80007940: 03 28 06 00  	lw	a6, 0(a2)
80007944: bb 07 07 41  	subw	a5, a4, a6
80007948: 23 a0 f6 00  	sw	a5, 0(a3)
8000794c: 93 07 10 00  	li	a5, 1
80007950: 63 04 f5 06  	beq	a0, a5, 0x800079b8 <softfloat_subM+0x7c>
80007954: 9b 08 e5 ff  	addiw	a7, a0, -2
80007958: 93 98 08 02  	slli	a7, a7, 32
8000795c: 93 87 85 00  	addi	a5, a1, 8
80007960: 93 d8 e8 01  	srli	a7, a7, 30
80007964: 93 85 45 00  	addi	a1, a1, 4
80007968: 13 06 46 00  	addi	a2, a2, 4
8000796c: 93 86 46 00  	addi	a3, a3, 4
80007970: b3 88 f8 00  	add	a7, a7, a5
80007974: 13 05 00 00  	li	a0, 0
80007978: 6f 00 c0 02  	j	0x800079a4 <softfloat_subM+0x68>
8000797c: 13 f5 f7 0f  	andi	a0, a5, 255
80007980: 03 a7 05 00  	lw	a4, 0(a1)
80007984: 03 28 06 00  	lw	a6, 0(a2)
80007988: 93 85 45 00  	addi	a1, a1, 4
8000798c: 13 06 46 00  	addi	a2, a2, 4
80007990: bb 07 07 41  	subw	a5, a4, a6
80007994: bb 87 a7 40  	subw	a5, a5, a0
80007998: 23 a0 f6 00  	sw	a5, 0(a3)
8000799c: 93 86 46 00  	addi	a3, a3, 4
800079a0: 63 8c 15 01  	beq	a1, a7, 0x800079b8 <softfloat_subM+0x7c>
800079a4: b3 37 e8 00  	sltu	a5, a6, a4
800079a8: 93 c7 17 00  	xori	a5, a5, 1
800079ac: e3 18 05 fc  	bnez	a0, 0x8000797c <softfloat_subM+0x40>
800079b0: 33 35 07 01  	sltu	a0, a4, a6
800079b4: 6f f0 df fc  	j	0x80007980 <softfloat_subM+0x44>
800079b8: 67 80 00 00  	ret

00000000800079bc <softfloat_subMagsF32>:
800079bc: 13 01 01 fd  	addi	sp, sp, -48
800079c0: 23 30 81 02  	sd	s0, 32(sp)
800079c4: 93 d7 75 01  	srli	a5, a1, 23
800079c8: 13 54 75 01  	srli	s0, a0, 23
800079cc: 37 07 80 00  	lui	a4, 2048
800079d0: 13 07 f7 ff  	addi	a4, a4, -1
800079d4: 13 74 f4 0f  	andi	s0, s0, 255
800079d8: 93 f7 f7 0f  	andi	a5, a5, 255
800079dc: 23 34 11 02  	sd	ra, 40(sp)
800079e0: 23 3c 91 00  	sd	s1, 24(sp)
800079e4: 23 38 21 01  	sd	s2, 16(sp)
800079e8: 23 34 31 01  	sd	s3, 8(sp)
800079ec: b3 76 e5 00  	and	a3, a0, a4
800079f0: 33 f6 e5 00  	and	a2, a1, a4
800079f4: 33 08 f4 40  	sub	a6, s0, a5
800079f8: 63 10 f4 08  	bne	s0, a5, 0x80007a78 <softfloat_subMagsF32+0xbc>
800079fc: 93 07 f0 0f  	li	a5, 255
80007a00: 63 00 f4 12  	beq	s0, a5, 0x80007b20 <softfloat_subMagsF32+0x164>
80007a04: 33 89 c6 40  	sub	s2, a3, a2
80007a08: 63 84 c6 14  	beq	a3, a2, 0x80007b50 <softfloat_subMagsF32+0x194>
80007a0c: b3 37 80 00  	snez	a5, s0
80007a10: 1b 05 05 00  	sext.w	a0, a0
80007a14: 33 04 f4 40  	sub	s0, s0, a5
80007a18: 9b 54 f5 01  	srliw	s1, a0, 31
80007a1c: 63 58 09 00  	bgez	s2, 0x80007a2c <softfloat_subMagsF32+0x70>
80007a20: 13 45 f5 ff  	not	a0, a0
80007a24: 9b 54 f5 01  	srliw	s1, a0, 31
80007a28: 33 09 20 41  	neg	s2, s2
80007a2c: 1b 05 09 00  	sext.w	a0, s2
80007a30: ef 00 c0 51  	jal	0x80007f4c <softfloat_countLeadingZeros32>
80007a34: 9b 07 85 ff  	addiw	a5, a0, -8
80007a38: 9b 97 87 01  	slliw	a5, a5, 24
80007a3c: 9b d7 87 41  	sraiw	a5, a5, 24
80007a40: 33 05 f4 40  	sub	a0, s0, a5
80007a44: 63 40 05 18  	bltz	a0, 0x80007bc4 <softfloat_subMagsF32+0x208>
80007a48: 1b 17 75 01  	slliw	a4, a0, 23
80007a4c: 83 30 81 02  	ld	ra, 40(sp)
80007a50: 03 34 01 02  	ld	s0, 32(sp)
80007a54: 1b 95 f4 01  	slliw	a0, s1, 31
80007a58: 33 19 f9 00  	sll	s2, s2, a5
80007a5c: 3b 05 e5 00  	addw	a0, a0, a4
80007a60: 83 34 81 01  	ld	s1, 24(sp)
80007a64: 83 39 81 00  	ld	s3, 8(sp)
80007a68: 3b 05 25 01  	addw	a0, a0, s2
80007a6c: 03 39 01 01  	ld	s2, 16(sp)
80007a70: 13 01 01 03  	addi	sp, sp, 48
80007a74: 67 80 00 00  	ret
80007a78: 1b 07 05 00  	sext.w	a4, a0
80007a7c: 93 96 76 00  	slli	a3, a3, 7
80007a80: 13 16 76 00  	slli	a2, a2, 7
80007a84: 63 44 08 06  	bltz	a6, 0x80007aec <softfloat_subMagsF32+0x130>
80007a88: 93 08 f0 0f  	li	a7, 255
80007a8c: 63 0a 14 0f  	beq	s0, a7, 0x80007b80 <softfloat_subMagsF32+0x1c4>
80007a90: 37 09 00 40  	lui	s2, 262144
80007a94: 33 e9 26 01  	or	s2, a3, s2
80007a98: 93 09 f4 ff  	addi	s3, s0, -1
80007a9c: b7 06 00 40  	lui	a3, 262144
80007aa0: 63 94 07 00  	bnez	a5, 0x80007aa8 <softfloat_subMagsF32+0xec>
80007aa4: 93 06 06 00  	mv	a3, a2
80007aa8: 9b 54 f7 01  	srliw	s1, a4, 31
80007aac: 33 85 c6 00  	add	a0, a3, a2
80007ab0: 93 05 08 00  	mv	a1, a6
80007ab4: 1b 05 05 00  	sext.w	a0, a0
80007ab8: ef f0 5f b6  	jal	0x8000761c <softfloat_shiftRightJam32>
80007abc: 13 15 05 02  	slli	a0, a0, 32
80007ac0: 03 34 01 02  	ld	s0, 32(sp)
80007ac4: 13 55 05 02  	srli	a0, a0, 32
80007ac8: 83 30 81 02  	ld	ra, 40(sp)
80007acc: 33 06 a9 40  	sub	a2, s2, a0
80007ad0: 93 85 09 00  	mv	a1, s3
80007ad4: 03 39 01 01  	ld	s2, 16(sp)
80007ad8: 83 39 81 00  	ld	s3, 8(sp)
80007adc: 13 85 04 00  	mv	a0, s1
80007ae0: 83 34 81 01  	ld	s1, 24(sp)
80007ae4: 13 01 01 03  	addi	sp, sp, 48
80007ae8: 6f 00 00 51  	j	0x80007ff8 <softfloat_normRoundPackToF32>
80007aec: 13 47 f7 ff  	not	a4, a4
80007af0: 13 08 f0 0f  	li	a6, 255
80007af4: 9b 54 f7 01  	srliw	s1, a4, 31
80007af8: 63 8a 07 09  	beq	a5, a6, 0x80007b8c <softfloat_subMagsF32+0x1d0>
80007afc: 37 09 00 40  	lui	s2, 262144
80007b00: 93 89 f7 ff  	addi	s3, a5, -1
80007b04: 33 69 26 01  	or	s2, a2, s2
80007b08: 37 05 00 40  	lui	a0, 262144
80007b0c: 63 14 04 00  	bnez	s0, 0x80007b14 <softfloat_subMagsF32+0x158>
80007b10: 13 85 06 00  	mv	a0, a3
80007b14: 33 05 d5 00  	add	a0, a0, a3
80007b18: 33 88 87 40  	sub	a6, a5, s0
80007b1c: 6f f0 5f f9  	j	0x80007ab0 <softfloat_subMagsF32+0xf4>
80007b20: b3 67 b5 00  	or	a5, a0, a1
80007b24: 33 f7 e7 00  	and	a4, a5, a4
80007b28: 63 1c 07 06  	bnez	a4, 0x80007ba0 <softfloat_subMagsF32+0x1e4>
80007b2c: f3 67 18 00  	csrrsi	a5, fflags, 16
80007b30: 37 05 c0 7f  	lui	a0, 523264
80007b34: 83 30 81 02  	ld	ra, 40(sp)
80007b38: 03 34 01 02  	ld	s0, 32(sp)
80007b3c: 83 34 81 01  	ld	s1, 24(sp)
80007b40: 03 39 01 01  	ld	s2, 16(sp)
80007b44: 83 39 81 00  	ld	s3, 8(sp)
80007b48: 13 01 01 03  	addi	sp, sp, 48
80007b4c: 67 80 00 00  	ret
80007b50: 1b 07 02 00  	sext.w	a4, tp
80007b54: 93 07 20 00  	li	a5, 2
80007b58: 37 05 00 80  	lui	a0, 524288
80007b5c: e3 0c f7 fc  	beq	a4, a5, 0x80007b34 <softfloat_subMagsF32+0x178>
80007b60: 83 30 81 02  	ld	ra, 40(sp)
80007b64: 03 34 01 02  	ld	s0, 32(sp)
80007b68: 83 34 81 01  	ld	s1, 24(sp)
80007b6c: 03 39 01 01  	ld	s2, 16(sp)
80007b70: 83 39 81 00  	ld	s3, 8(sp)
80007b74: 13 05 00 00  	li	a0, 0
80007b78: 13 01 01 03  	addi	sp, sp, 48
80007b7c: 67 80 00 00  	ret
80007b80: 63 90 06 02  	bnez	a3, 0x80007ba0 <softfloat_subMagsF32+0x1e4>
80007b84: 13 05 07 00  	mv	a0, a4
80007b88: 6f f0 df fa  	j	0x80007b34 <softfloat_subMagsF32+0x178>
80007b8c: 63 1a 06 00  	bnez	a2, 0x80007ba0 <softfloat_subMagsF32+0x1e4>
80007b90: 1b 95 f4 01  	slliw	a0, s1, 31
80007b94: b7 07 80 7f  	lui	a5, 522240
80007b98: 3b 05 f5 00  	addw	a0, a0, a5
80007b9c: 6f f0 9f f9  	j	0x80007b34 <softfloat_subMagsF32+0x178>
80007ba0: ef 00 00 29  	jal	0x80007e30 <softfloat_propagateNaNF32UI>
80007ba4: 83 30 81 02  	ld	ra, 40(sp)
80007ba8: 03 34 01 02  	ld	s0, 32(sp)
80007bac: 83 34 81 01  	ld	s1, 24(sp)
80007bb0: 03 39 01 01  	ld	s2, 16(sp)
80007bb4: 83 39 81 00  	ld	s3, 8(sp)
80007bb8: 1b 05 05 00  	sext.w	a0, a0
80007bbc: 13 01 01 03  	addi	sp, sp, 48
80007bc0: 67 80 00 00  	ret
80007bc4: 9b 17 84 01  	slliw	a5, s0, 24
80007bc8: 9b d7 87 41  	sraiw	a5, a5, 24
80007bcc: 13 07 00 00  	li	a4, 0
80007bd0: 6f f0 df e7  	j	0x80007a4c <softfloat_subMagsF32+0x90>

0000000080007bd4 <softfloat_subMagsF64>:
80007bd4: 13 01 01 fd  	addi	sp, sp, -48
80007bd8: 23 30 81 02  	sd	s0, 32(sp)
80007bdc: 23 3c 91 00  	sd	s1, 24(sp)
80007be0: 13 54 45 03  	srli	s0, a0, 52
80007be4: 13 08 f0 ff  	li	a6, -1
80007be8: 93 d4 45 03  	srli	s1, a1, 52
80007bec: 93 56 c8 00  	srli	a3, a6, 12
80007bf0: 23 30 41 01  	sd	s4, 0(sp)
80007bf4: 13 74 f4 7f  	andi	s0, s0, 2047
80007bf8: 93 f4 f4 7f  	andi	s1, s1, 2047
80007bfc: 23 34 11 02  	sd	ra, 40(sp)
80007c00: 23 38 21 01  	sd	s2, 16(sp)
80007c04: 23 34 31 01  	sd	s3, 8(sp)
80007c08: 13 0a 06 00  	mv	s4, a2
80007c0c: b3 77 d5 00  	and	a5, a0, a3
80007c10: 33 f7 d5 00  	and	a4, a1, a3
80007c14: 33 06 94 40  	sub	a2, s0, s1
80007c18: 63 1c 94 06  	bne	s0, s1, 0x80007c90 <softfloat_subMagsF64+0xbc>
80007c1c: 13 06 f0 7f  	li	a2, 2047
80007c20: 63 0a c4 10  	beq	s0, a2, 0x80007d34 <softfloat_subMagsF64+0x160>
80007c24: b3 84 e7 40  	sub	s1, a5, a4
80007c28: 63 82 e7 14  	beq	a5, a4, 0x80007d6c <softfloat_subMagsF64+0x198>
80007c2c: b3 37 80 00  	snez	a5, s0
80007c30: 33 04 f4 40  	sub	s0, s0, a5
80007c34: 63 d6 04 00  	bgez	s1, 0x80007c40 <softfloat_subMagsF64+0x6c>
80007c38: 13 4a 1a 00  	xori	s4, s4, 1
80007c3c: b3 04 90 40  	neg	s1, s1
80007c40: 13 85 04 00  	mv	a0, s1
80007c44: ef 00 00 35  	jal	0x80007f94 <softfloat_countLeadingZeros64>
80007c48: 9b 07 55 ff  	addiw	a5, a0, -11
80007c4c: 9b 97 87 01  	slliw	a5, a5, 24
80007c50: 9b d7 87 41  	sraiw	a5, a5, 24
80007c54: 33 05 f4 40  	sub	a0, s0, a5
80007c58: 63 42 05 18  	bltz	a0, 0x80007ddc <softfloat_subMagsF64+0x208>
80007c5c: 13 15 45 03  	slli	a0, a0, 52
80007c60: 83 30 81 02  	ld	ra, 40(sp)
80007c64: 03 34 01 02  	ld	s0, 32(sp)
80007c68: 13 16 fa 03  	slli	a2, s4, 63
80007c6c: b3 94 f4 00  	sll	s1, s1, a5
80007c70: 33 05 a6 00  	add	a0, a2, a0
80007c74: 03 39 01 01  	ld	s2, 16(sp)
80007c78: 83 39 81 00  	ld	s3, 8(sp)
80007c7c: 03 3a 01 00  	ld	s4, 0(sp)
80007c80: 33 05 95 00  	add	a0, a0, s1
80007c84: 83 34 81 01  	ld	s1, 24(sp)
80007c88: 13 01 01 03  	addi	sp, sp, 48
80007c8c: 67 80 00 00  	ret
80007c90: 13 99 a7 00  	slli	s2, a5, 10
80007c94: 93 19 a7 00  	slli	s3, a4, 10
80007c98: 93 07 f0 7f  	li	a5, 2047
80007c9c: 63 4e 06 04  	bltz	a2, 0x80007cf8 <softfloat_subMagsF64+0x124>
80007ca0: 63 00 f4 10  	beq	s0, a5, 0x80007da0 <softfloat_subMagsF64+0x1cc>
80007ca4: 13 85 09 00  	mv	a0, s3
80007ca8: 63 86 04 00  	beqz	s1, 0x80007cb4 <softfloat_subMagsF64+0xe0>
80007cac: 13 05 10 00  	li	a0, 1
80007cb0: 13 15 e5 03  	slli	a0, a0, 62
80007cb4: 93 05 06 00  	mv	a1, a2
80007cb8: 33 05 35 01  	add	a0, a0, s3
80007cbc: ef f0 df 98  	jal	0x80007648 <softfloat_shiftRightJam64>
80007cc0: 93 07 10 00  	li	a5, 1
80007cc4: 93 97 e7 03  	slli	a5, a5, 62
80007cc8: b3 67 f9 00  	or	a5, s2, a5
80007ccc: 33 86 a7 40  	sub	a2, a5, a0
80007cd0: 93 05 f4 ff  	addi	a1, s0, -1
80007cd4: 03 34 01 02  	ld	s0, 32(sp)
80007cd8: 83 30 81 02  	ld	ra, 40(sp)
80007cdc: 83 34 81 01  	ld	s1, 24(sp)
80007ce0: 03 39 01 01  	ld	s2, 16(sp)
80007ce4: 83 39 81 00  	ld	s3, 8(sp)
80007ce8: 13 05 0a 00  	mv	a0, s4
80007cec: 03 3a 01 00  	ld	s4, 0(sp)
80007cf0: 13 01 01 03  	addi	sp, sp, 48
80007cf4: 6f 00 80 3a  	j	0x8000809c <softfloat_normRoundPackToF64>
80007cf8: 13 4a 1a 00  	xori	s4, s4, 1
80007cfc: 63 86 f4 0c  	beq	s1, a5, 0x80007dc8 <softfloat_subMagsF64+0x1f4>
80007d00: 13 05 09 00  	mv	a0, s2
80007d04: 63 06 04 00  	beqz	s0, 0x80007d10 <softfloat_subMagsF64+0x13c>
80007d08: 13 05 10 00  	li	a0, 1
80007d0c: 13 15 e5 03  	slli	a0, a0, 62
80007d10: b3 85 84 40  	sub	a1, s1, s0
80007d14: 33 05 25 01  	add	a0, a0, s2
80007d18: ef f0 1f 93  	jal	0x80007648 <softfloat_shiftRightJam64>
80007d1c: 13 07 10 00  	li	a4, 1
80007d20: 13 17 e7 03  	slli	a4, a4, 62
80007d24: 33 e7 e9 00  	or	a4, s3, a4
80007d28: 33 06 a7 40  	sub	a2, a4, a0
80007d2c: 13 84 04 00  	mv	s0, s1
80007d30: 6f f0 1f fa  	j	0x80007cd0 <softfloat_subMagsF64+0xfc>
80007d34: b3 67 b5 00  	or	a5, a0, a1
80007d38: b3 f6 d7 00  	and	a3, a5, a3
80007d3c: 63 94 06 06  	bnez	a3, 0x80007da4 <softfloat_subMagsF64+0x1d0>
80007d40: f3 67 18 00  	csrrsi	a5, fflags, 16
80007d44: 37 f5 ff 00  	lui	a0, 4095
80007d48: 13 15 75 02  	slli	a0, a0, 39
80007d4c: 83 30 81 02  	ld	ra, 40(sp)
80007d50: 03 34 01 02  	ld	s0, 32(sp)
80007d54: 83 34 81 01  	ld	s1, 24(sp)
80007d58: 03 39 01 01  	ld	s2, 16(sp)
80007d5c: 83 39 81 00  	ld	s3, 8(sp)
80007d60: 03 3a 01 00  	ld	s4, 0(sp)
80007d64: 13 01 01 03  	addi	sp, sp, 48
80007d68: 67 80 00 00  	ret
80007d6c: 1b 07 02 00  	sext.w	a4, tp
80007d70: 93 07 20 00  	li	a5, 2
80007d74: 13 15 f8 03  	slli	a0, a6, 63
80007d78: e3 0a f7 fc  	beq	a4, a5, 0x80007d4c <softfloat_subMagsF64+0x178>
80007d7c: 83 30 81 02  	ld	ra, 40(sp)
80007d80: 03 34 01 02  	ld	s0, 32(sp)
80007d84: 83 34 81 01  	ld	s1, 24(sp)
80007d88: 03 39 01 01  	ld	s2, 16(sp)
80007d8c: 83 39 81 00  	ld	s3, 8(sp)
80007d90: 03 3a 01 00  	ld	s4, 0(sp)
80007d94: 13 05 00 00  	li	a0, 0
80007d98: 13 01 01 03  	addi	sp, sp, 48
80007d9c: 67 80 00 00  	ret
80007da0: e3 06 09 fa  	beqz	s2, 0x80007d4c <softfloat_subMagsF64+0x178>
80007da4: ef 00 80 0d  	jal	0x80007e7c <softfloat_propagateNaNF64UI>
80007da8: 83 30 81 02  	ld	ra, 40(sp)
80007dac: 03 34 01 02  	ld	s0, 32(sp)
80007db0: 83 34 81 01  	ld	s1, 24(sp)
80007db4: 03 39 01 01  	ld	s2, 16(sp)
80007db8: 83 39 81 00  	ld	s3, 8(sp)
80007dbc: 03 3a 01 00  	ld	s4, 0(sp)
80007dc0: 13 01 01 03  	addi	sp, sp, 48
80007dc4: 67 80 00 00  	ret
80007dc8: e3 9e 09 fc  	bnez	s3, 0x80007da4 <softfloat_subMagsF64+0x1d0>
80007dcc: 13 15 fa 03  	slli	a0, s4, 63
80007dd0: 93 94 44 03  	slli	s1, s1, 52
80007dd4: 33 05 95 00  	add	a0, a0, s1
80007dd8: 6f f0 5f f7  	j	0x80007d4c <softfloat_subMagsF64+0x178>
80007ddc: 9b 17 84 01  	slliw	a5, s0, 24
80007de0: 9b d7 87 41  	sraiw	a5, a5, 24
80007de4: 13 05 00 00  	li	a0, 0
80007de8: 6f f0 9f e7  	j	0x80007c60 <softfloat_subMagsF64+0x8c>

0000000080007dec <ui64_to_f64>:
80007dec: 63 00 05 04  	beqz	a0, 0x80007e2c <ui64_to_f64+0x40>
80007df0: 13 06 05 00  	mv	a2, a0
80007df4: 63 48 05 00  	bltz	a0, 0x80007e04 <ui64_to_f64+0x18>
80007df8: 93 05 c0 43  	li	a1, 1084
80007dfc: 13 05 00 00  	li	a0, 0
80007e00: 6f 00 c0 29  	j	0x8000809c <softfloat_normRoundPackToF64>
80007e04: 13 01 01 ff  	addi	sp, sp, -16
80007e08: 93 05 10 00  	li	a1, 1
80007e0c: 23 34 11 00  	sd	ra, 8(sp)
80007e10: ef f0 5f a8  	jal	0x80007894 <softfloat_shortShiftRightJam64>
80007e14: 83 30 81 00  	ld	ra, 8(sp)
80007e18: 13 06 05 00  	mv	a2, a0
80007e1c: 93 05 d0 43  	li	a1, 1085
80007e20: 13 05 00 00  	li	a0, 0
80007e24: 13 01 01 01  	addi	sp, sp, 16
80007e28: 6f f0 8f db  	j	0x800073e0 <softfloat_roundPackToF64>
80007e2c: 67 80 00 00  	ret

0000000080007e30 <softfloat_propagateNaNF32UI>:
80007e30: b7 07 c0 7f  	lui	a5, 523264
80007e34: b3 77 f5 00  	and	a5, a0, a5
80007e38: 37 07 80 7f  	lui	a4, 522240
80007e3c: 63 8e e7 00  	beq	a5, a4, 0x80007e58 <softfloat_propagateNaNF32UI+0x28>
80007e40: b7 07 c0 7f  	lui	a5, 523264
80007e44: b3 f7 f5 00  	and	a5, a1, a5
80007e48: 37 07 80 7f  	lui	a4, 522240
80007e4c: 63 80 e7 02  	beq	a5, a4, 0x80007e6c <softfloat_propagateNaNF32UI+0x3c>
80007e50: 37 05 c0 7f  	lui	a0, 523264
80007e54: 67 80 00 00  	ret
80007e58: 13 15 a5 02  	slli	a0, a0, 42
80007e5c: e3 02 05 fe  	beqz	a0, 0x80007e40 <softfloat_propagateNaNF32UI+0x10>
80007e60: f3 67 18 00  	csrrsi	a5, fflags, 16
80007e64: 37 05 c0 7f  	lui	a0, 523264
80007e68: 67 80 00 00  	ret
80007e6c: 93 95 a5 02  	slli	a1, a1, 42
80007e70: e3 80 05 fe  	beqz	a1, 0x80007e50 <softfloat_propagateNaNF32UI+0x20>
80007e74: f3 67 18 00  	csrrsi	a5, fflags, 16
80007e78: 6f f0 df fe  	j	0x80007e64 <softfloat_propagateNaNF32UI+0x34>

0000000080007e7c <softfloat_propagateNaNF64UI>:
80007e7c: b7 f7 ff 00  	lui	a5, 4095
80007e80: 93 97 77 02  	slli	a5, a5, 39
80007e84: 13 07 f0 7f  	li	a4, 2047
80007e88: b3 77 f5 00  	and	a5, a0, a5
80007e8c: 13 17 47 03  	slli	a4, a4, 52
80007e90: 63 84 e7 02  	beq	a5, a4, 0x80007eb8 <softfloat_propagateNaNF64UI+0x3c>
80007e94: b7 f7 ff 00  	lui	a5, 4095
80007e98: 93 97 77 02  	slli	a5, a5, 39
80007e9c: 13 07 f0 7f  	li	a4, 2047
80007ea0: b3 f7 f5 00  	and	a5, a1, a5
80007ea4: 13 17 47 03  	slli	a4, a4, 52
80007ea8: 63 84 e7 02  	beq	a5, a4, 0x80007ed0 <softfloat_propagateNaNF64UI+0x54>
80007eac: 37 f5 ff 00  	lui	a0, 4095
80007eb0: 13 15 75 02  	slli	a0, a0, 39
80007eb4: 67 80 00 00  	ret
80007eb8: 13 15 d5 00  	slli	a0, a0, 13
80007ebc: e3 0c 05 fc  	beqz	a0, 0x80007e94 <softfloat_propagateNaNF64UI+0x18>
80007ec0: f3 67 18 00  	csrrsi	a5, fflags, 16
80007ec4: 37 f5 ff 00  	lui	a0, 4095
80007ec8: 13 15 75 02  	slli	a0, a0, 39
80007ecc: 67 80 00 00  	ret
80007ed0: 93 95 d5 00  	slli	a1, a1, 13
80007ed4: e3 8c 05 fc  	beqz	a1, 0x80007eac <softfloat_propagateNaNF64UI+0x30>
80007ed8: f3 67 18 00  	csrrsi	a5, fflags, 16
80007edc: 6f f0 9f fe  	j	0x80007ec4 <softfloat_propagateNaNF64UI+0x48>

0000000080007ee0 <softfloat_addM>:
80007ee0: 03 a7 05 00  	lw	a4, 0(a1)
80007ee4: 83 27 06 00  	lw	a5, 0(a2)
80007ee8: 13 08 10 00  	li	a6, 1
80007eec: bb 87 e7 00  	addw	a5, a5, a4
80007ef0: 23 a0 f6 00  	sw	a5, 0(a3)
80007ef4: 63 0a 05 05  	beq	a0, a6, 0x80007f48 <softfloat_addM+0x68>
80007ef8: 1b 05 e5 ff  	addiw	a0, a0, -2
80007efc: 13 15 05 02  	slli	a0, a0, 32
80007f00: 13 88 85 00  	addi	a6, a1, 8
80007f04: 13 55 e5 01  	srli	a0, a0, 30
80007f08: 33 05 05 01  	add	a0, a0, a6
80007f0c: 93 85 45 00  	addi	a1, a1, 4
80007f10: 13 06 46 00  	addi	a2, a2, 4
80007f14: 93 86 46 00  	addi	a3, a3, 4
80007f18: 13 08 00 00  	li	a6, 0
80007f1c: 63 04 f7 00  	beq	a4, a5, 0x80007f24 <softfloat_addM+0x44>
80007f20: 33 b8 e7 00  	sltu	a6, a5, a4
80007f24: 03 a7 05 00  	lw	a4, 0(a1)
80007f28: 83 27 06 00  	lw	a5, 0(a2)
80007f2c: 93 85 45 00  	addi	a1, a1, 4
80007f30: 13 06 46 00  	addi	a2, a2, 4
80007f34: bb 87 e7 00  	addw	a5, a5, a4
80007f38: bb 87 07 01  	addw	a5, a5, a6
80007f3c: 23 a0 f6 00  	sw	a5, 0(a3)
80007f40: 93 86 46 00  	addi	a3, a3, 4
80007f44: e3 9c a5 fc  	bne	a1, a0, 0x80007f1c <softfloat_addM+0x3c>
80007f48: 67 80 00 00  	ret

0000000080007f4c <softfloat_countLeadingZeros32>:
80007f4c: 37 07 01 00  	lui	a4, 16
80007f50: 93 07 00 00  	li	a5, 0
80007f54: 63 76 e5 00  	bgeu	a0, a4, 0x80007f60 <softfloat_countLeadingZeros32+0x14>
80007f58: 1b 15 05 01  	slliw	a0, a0, 16
80007f5c: 93 07 00 01  	li	a5, 16
80007f60: 37 07 00 01  	lui	a4, 4096
80007f64: 63 78 e5 00  	bgeu	a0, a4, 0x80007f74 <softfloat_countLeadingZeros32+0x28>
80007f68: 9b 87 87 00  	addiw	a5, a5, 8
80007f6c: 1b 15 85 00  	slliw	a0, a0, 8
80007f70: 93 f7 f7 0f  	andi	a5, a5, 255
80007f74: 17 17 00 00  	auipc	a4, 1
80007f78: 13 07 47 d7  	addi	a4, a4, -652
80007f7c: 1b 55 85 01  	srliw	a0, a0, 24
80007f80: 33 05 a7 00  	add	a0, a4, a0
80007f84: 03 45 05 00  	lbu	a0, 0(a0)
80007f88: 3b 05 f5 00  	addw	a0, a0, a5
80007f8c: 13 75 f5 0f  	andi	a0, a0, 255
80007f90: 67 80 00 00  	ret

0000000080007f94 <softfloat_countLeadingZeros64>:
80007f94: 93 57 05 02  	srli	a5, a0, 32
80007f98: 63 8a 07 04  	beqz	a5, 0x80007fec <softfloat_countLeadingZeros64+0x58>
80007f9c: 9b 87 07 00  	sext.w	a5, a5
80007fa0: 13 05 00 00  	li	a0, 0
80007fa4: 37 07 01 00  	lui	a4, 16
80007fa8: 63 f8 e7 00  	bgeu	a5, a4, 0x80007fb8 <softfloat_countLeadingZeros64+0x24>
80007fac: 1b 05 05 01  	addiw	a0, a0, 16
80007fb0: 9b 97 07 01  	slliw	a5, a5, 16
80007fb4: 13 75 f5 0f  	andi	a0, a0, 255
80007fb8: 37 07 00 01  	lui	a4, 4096
80007fbc: 63 f8 e7 00  	bgeu	a5, a4, 0x80007fcc <softfloat_countLeadingZeros64+0x38>
80007fc0: 1b 05 85 00  	addiw	a0, a0, 8
80007fc4: 9b 97 87 00  	slliw	a5, a5, 8
80007fc8: 13 75 f5 0f  	andi	a0, a0, 255
80007fcc: 17 17 00 00  	auipc	a4, 1
80007fd0: 13 07 c7 d1  	addi	a4, a4, -740
80007fd4: 9b d7 87 01  	srliw	a5, a5, 24
80007fd8: b3 07 f7 00  	add	a5, a4, a5
80007fdc: 83 c7 07 00  	lbu	a5, 0(a5)
80007fe0: 3b 85 a7 00  	addw	a0, a5, a0
80007fe4: 13 75 f5 0f  	andi	a0, a0, 255
80007fe8: 67 80 00 00  	ret
80007fec: 9b 07 05 00  	sext.w	a5, a0
80007ff0: 13 05 00 02  	li	a0, 32
80007ff4: 6f f0 1f fb  	j	0x80007fa4 <softfloat_countLeadingZeros64+0x10>

0000000080007ff8 <softfloat_normRoundPackToF32>:
80007ff8: 13 01 01 fe  	addi	sp, sp, -32
80007ffc: 23 30 21 01  	sd	s2, 0(sp)
80008000: 13 09 05 00  	mv	s2, a0
80008004: 1b 05 06 00  	sext.w	a0, a2
80008008: 23 38 81 00  	sd	s0, 16(sp)
8000800c: 23 34 91 00  	sd	s1, 8(sp)
80008010: 23 3c 11 00  	sd	ra, 24(sp)
80008014: 93 84 05 00  	mv	s1, a1
80008018: 13 04 06 00  	mv	s0, a2
8000801c: ef f0 1f f3  	jal	0x80007f4c <softfloat_countLeadingZeros32>
80008020: 9b 07 f5 ff  	addiw	a5, a0, -1
80008024: 9b 97 87 01  	slliw	a5, a5, 24
80008028: 9b d7 87 41  	sraiw	a5, a5, 24
8000802c: 13 07 60 00  	li	a4, 6
80008030: b3 85 f4 40  	sub	a1, s1, a5
80008034: 63 54 f7 04  	bge	a4, a5, 0x8000807c <softfloat_normRoundPackToF32+0x84>
80008038: 1b 87 05 00  	sext.w	a4, a1
8000803c: 93 06 c0 0f  	li	a3, 252
80008040: 63 ee e6 02  	bltu	a3, a4, 0x8000807c <softfloat_normRoundPackToF32+0x84>
80008044: 1b 15 f9 01  	slliw	a0, s2, 31
80008048: 13 06 00 00  	li	a2, 0
8000804c: 63 04 04 00  	beqz	s0, 0x80008054 <softfloat_normRoundPackToF32+0x5c>
80008050: 1b 16 77 01  	slliw	a2, a4, 23
80008054: 9b 87 97 ff  	addiw	a5, a5, -7
80008058: 83 30 81 01  	ld	ra, 24(sp)
8000805c: b3 17 f4 00  	sll	a5, s0, a5
80008060: 03 34 01 01  	ld	s0, 16(sp)
80008064: 3b 85 a7 00  	addw	a0, a5, a0
80008068: 83 34 81 00  	ld	s1, 8(sp)
8000806c: 03 39 01 00  	ld	s2, 0(sp)
80008070: 3b 05 c5 00  	addw	a0, a0, a2
80008074: 13 01 01 02  	addi	sp, sp, 32
80008078: 67 80 00 00  	ret
8000807c: 33 16 f4 00  	sll	a2, s0, a5
80008080: 03 34 01 01  	ld	s0, 16(sp)
80008084: 83 30 81 01  	ld	ra, 24(sp)
80008088: 83 34 81 00  	ld	s1, 8(sp)
8000808c: 13 05 09 00  	mv	a0, s2
80008090: 03 39 01 00  	ld	s2, 0(sp)
80008094: 13 01 01 02  	addi	sp, sp, 32
80008098: 6f f0 4f 9e  	j	0x8000727c <softfloat_roundPackToF32>

000000008000809c <softfloat_normRoundPackToF64>:
8000809c: 13 01 01 fe  	addi	sp, sp, -32
800080a0: 23 30 21 01  	sd	s2, 0(sp)
800080a4: 13 09 05 00  	mv	s2, a0
800080a8: 13 05 06 00  	mv	a0, a2
800080ac: 23 38 81 00  	sd	s0, 16(sp)
800080b0: 23 34 91 00  	sd	s1, 8(sp)
800080b4: 23 3c 11 00  	sd	ra, 24(sp)
800080b8: 93 84 05 00  	mv	s1, a1
800080bc: 13 04 06 00  	mv	s0, a2
800080c0: ef f0 5f ed  	jal	0x80007f94 <softfloat_countLeadingZeros64>
800080c4: 9b 07 f5 ff  	addiw	a5, a0, -1
800080c8: 9b 97 87 01  	slliw	a5, a5, 24
800080cc: 9b d7 87 41  	sraiw	a5, a5, 24
800080d0: 13 07 90 00  	li	a4, 9
800080d4: b3 85 f4 40  	sub	a1, s1, a5
800080d8: 63 54 f7 04  	bge	a4, a5, 0x80008120 <softfloat_normRoundPackToF64+0x84>
800080dc: 1b 87 05 00  	sext.w	a4, a1
800080e0: 93 06 c0 7f  	li	a3, 2044
800080e4: 63 ee e6 02  	bltu	a3, a4, 0x80008120 <softfloat_normRoundPackToF64+0x84>
800080e8: 13 15 f9 03  	slli	a0, s2, 63
800080ec: 13 06 00 00  	li	a2, 0
800080f0: 63 04 04 00  	beqz	s0, 0x800080f8 <softfloat_normRoundPackToF64+0x5c>
800080f4: 13 96 45 03  	slli	a2, a1, 52
800080f8: 9b 87 67 ff  	addiw	a5, a5, -10
800080fc: 83 30 81 01  	ld	ra, 24(sp)
80008100: b3 17 f4 00  	sll	a5, s0, a5
80008104: 03 34 01 01  	ld	s0, 16(sp)
80008108: 33 85 a7 00  	add	a0, a5, a0
8000810c: 83 34 81 00  	ld	s1, 8(sp)
80008110: 03 39 01 00  	ld	s2, 0(sp)
80008114: 33 05 c5 00  	add	a0, a0, a2
80008118: 13 01 01 02  	addi	sp, sp, 32
8000811c: 67 80 00 00  	ret
80008120: 33 16 f4 00  	sll	a2, s0, a5
80008124: 03 34 01 01  	ld	s0, 16(sp)
80008128: 83 30 81 01  	ld	ra, 24(sp)
8000812c: 83 34 81 00  	ld	s1, 8(sp)
80008130: 13 05 09 00  	mv	a0, s2
80008134: 03 39 01 00  	ld	s2, 0(sp)
80008138: 13 01 01 02  	addi	sp, sp, 32
8000813c: 6f f0 4f aa  	j	0x800073e0 <softfloat_roundPackToF64>

0000000080008140 <vsnprintf>:
80008140: 83 47 06 00  	lbu	a5, 0(a2)
80008144: 93 0e 05 00  	mv	t4, a0
80008148: 63 8e 07 32  	beqz	a5, 0x80008484 <vsnprintf+0x344>
8000814c: 13 01 01 fb  	addi	sp, sp, -80
80008150: 23 34 81 04  	sd	s0, 72(sp)
80008154: 23 30 91 04  	sd	s1, 64(sp)
80008158: 23 3c 21 03  	sd	s2, 56(sp)
8000815c: 23 38 31 03  	sd	s3, 48(sp)
80008160: 23 34 41 03  	sd	s4, 40(sp)
80008164: 23 30 51 03  	sd	s5, 32(sp)
80008168: 23 3c 61 01  	sd	s6, 24(sp)
8000816c: 23 38 71 01  	sd	s7, 16(sp)
80008170: 23 34 81 01  	sd	s8, 8(sp)
80008174: 13 07 00 00  	li	a4, 0
80008178: 13 04 00 00  	li	s0, 0
8000817c: 93 0a 00 00  	li	s5, 0
80008180: 13 08 00 00  	li	a6, 0
80008184: 93 03 50 02  	li	t2, 37
80008188: 13 0f 50 01  	li	t5, 21
8000818c: 17 13 00 00  	auipc	t1, 1
80008190: 13 03 c3 c5  	addi	t1, t1, -932
80008194: 13 05 a0 00  	li	a0, 10
80008198: 13 0a d0 02  	li	s4, 45
8000819c: 93 02 90 00  	li	t0, 9
800081a0: 93 0f f0 ff  	li	t6, -1
800081a4: 93 09 80 07  	li	s3, 120
800081a8: 13 09 00 03  	li	s2, 48
800081ac: 93 04 c0 06  	li	s1, 108
800081b0: 13 0e 16 00  	addi	t3, a2, 1
800081b4: 63 14 08 06  	bnez	a6, 0x8000821c <vsnprintf+0xdc>
800081b8: 63 8c 77 24  	beq	a5, t2, 0x80008410 <vsnprintf+0x2d0>
800081bc: 93 08 17 00  	addi	a7, a4, 1
800081c0: 63 f6 b8 00  	bgeu	a7, a1, 0x800081cc <vsnprintf+0x8c>
800081c4: 33 87 ee 00  	add	a4, t4, a4
800081c8: 23 00 f7 00  	sb	a5, 0(a4)
800081cc: 83 47 16 00  	lbu	a5, 1(a2)
800081d0: 13 87 08 00  	mv	a4, a7
800081d4: 13 06 0e 00  	mv	a2, t3
800081d8: e3 9c 07 fc  	bnez	a5, 0x800081b0 <vsnprintf+0x70>
800081dc: 1b 05 07 00  	sext.w	a0, a4
800081e0: 63 62 b7 24  	bltu	a4, a1, 0x80008424 <vsnprintf+0x2e4>
800081e4: 63 86 05 00  	beqz	a1, 0x800081f0 <vsnprintf+0xb0>
800081e8: b3 85 be 00  	add	a1, t4, a1
800081ec: a3 8f 05 fe  	sb	zero, -1(a1)
800081f0: 03 34 81 04  	ld	s0, 72(sp)
800081f4: 83 34 01 04  	ld	s1, 64(sp)
800081f8: 03 39 81 03  	ld	s2, 56(sp)
800081fc: 83 39 01 03  	ld	s3, 48(sp)
80008200: 03 3a 81 02  	ld	s4, 40(sp)
80008204: 83 3a 01 02  	ld	s5, 32(sp)
80008208: 03 3b 81 01  	ld	s6, 24(sp)
8000820c: 83 3b 01 01  	ld	s7, 16(sp)
80008210: 03 3c 81 00  	ld	s8, 8(sp)
80008214: 13 01 01 05  	addi	sp, sp, 80
80008218: 67 80 00 00  	ret
8000821c: 9b 87 d7 f9  	addiw	a5, a5, -99
80008220: 93 f7 f7 0f  	andi	a5, a5, 255
80008224: 63 6e ff 1c  	bltu	t5, a5, 0x80008400 <vsnprintf+0x2c0>
80008228: 93 97 27 00  	slli	a5, a5, 2
8000822c: b3 87 67 00  	add	a5, a5, t1
80008230: 83 a7 07 00  	lw	a5, 0(a5)
80008234: b3 87 67 00  	add	a5, a5, t1
80008238: 67 80 07 00  	jr	a5
8000823c: 93 87 86 00  	addi	a5, a3, 8
80008240: 63 9c 0a 20  	bnez	s5, 0x80008458 <vsnprintf+0x318>
80008244: 03 ac 06 00  	lw	s8, 0(a3)
80008248: 93 0b 70 00  	li	s7, 7
8000824c: 93 86 07 00  	mv	a3, a5
80008250: 13 88 0b 00  	mv	a6, s7
80008254: 93 07 07 00  	mv	a5, a4
80008258: 93 87 17 00  	addi	a5, a5, 1
8000825c: 63 f2 b7 02  	bgeu	a5, a1, 0x80008280 <vsnprintf+0x140>
80008260: 9b 18 28 00  	slliw	a7, a6, 2
80008264: b3 58 1c 41  	sra	a7, s8, a7
80008268: 13 fb f8 00  	andi	s6, a7, 15
8000826c: 93 0a 7b 05  	addi	s5, s6, 87
80008270: 63 c4 62 01  	blt	t0, s6, 0x80008278 <vsnprintf+0x138>
80008274: 93 0a 0b 03  	addi	s5, s6, 48
80008278: b3 88 fe 00  	add	a7, t4, a5
8000827c: a3 8f 58 ff  	sb	s5, -1(a7)
80008280: 1b 08 f8 ff  	addiw	a6, a6, -1
80008284: e3 1a f8 fd  	bne	a6, t6, 0x80008258 <vsnprintf+0x118>
80008288: 83 47 16 00  	lbu	a5, 1(a2)
8000828c: 13 07 17 00  	addi	a4, a4, 1
80008290: 33 87 eb 00  	add	a4, s7, a4
80008294: 13 06 0e 00  	mv	a2, t3
80008298: 93 0a 00 00  	li	s5, 0
8000829c: 13 08 00 00  	li	a6, 0
800082a0: e3 98 07 f0  	bnez	a5, 0x800081b0 <vsnprintf+0x70>
800082a4: 6f f0 9f f3  	j	0x800081dc <vsnprintf+0x9c>
800082a8: 83 b8 06 00  	ld	a7, 0(a3)
800082ac: 13 08 07 00  	mv	a6, a4
800082b0: 93 86 86 00  	addi	a3, a3, 8
800082b4: 83 c7 08 00  	lbu	a5, 0(a7)
800082b8: 63 88 07 1e  	beqz	a5, 0x800084a8 <vsnprintf+0x368>
800082bc: 13 08 18 00  	addi	a6, a6, 1
800082c0: 63 76 b8 00  	bgeu	a6, a1, 0x800082cc <vsnprintf+0x18c>
800082c4: b3 8a 0e 01  	add	s5, t4, a6
800082c8: a3 8f fa fe  	sb	a5, -1(s5)
800082cc: b3 07 e8 40  	sub	a5, a6, a4
800082d0: b3 87 f8 00  	add	a5, a7, a5
800082d4: 83 c7 07 00  	lbu	a5, 0(a5)
800082d8: e3 92 07 fe  	bnez	a5, 0x800082bc <vsnprintf+0x17c>
800082dc: 83 47 16 00  	lbu	a5, 1(a2)
800082e0: 13 07 08 00  	mv	a4, a6
800082e4: 13 06 0e 00  	mv	a2, t3
800082e8: 93 0a 00 00  	li	s5, 0
800082ec: 13 08 00 00  	li	a6, 0
800082f0: e3 90 07 ec  	bnez	a5, 0x800081b0 <vsnprintf+0x70>
800082f4: 6f f0 9f ee  	j	0x800081dc <vsnprintf+0x9c>
800082f8: 93 07 17 00  	addi	a5, a4, 1
800082fc: 63 f6 b7 00  	bgeu	a5, a1, 0x80008308 <vsnprintf+0x1c8>
80008300: 33 88 ee 00  	add	a6, t4, a4
80008304: 23 00 28 01  	sb	s2, 0(a6)
80008308: 13 07 27 00  	addi	a4, a4, 2
8000830c: 13 88 86 00  	addi	a6, a3, 8
80008310: 63 76 b7 00  	bgeu	a4, a1, 0x8000831c <vsnprintf+0x1dc>
80008314: b3 87 fe 00  	add	a5, t4, a5
80008318: 23 80 37 01  	sb	s3, 0(a5)
8000831c: 03 bc 06 00  	ld	s8, 0(a3)
80008320: 93 0b f0 00  	li	s7, 15
80008324: 93 06 08 00  	mv	a3, a6
80008328: 6f f0 9f f2  	j	0x80008250 <vsnprintf+0x110>
8000832c: 83 47 16 00  	lbu	a5, 1(a2)
80008330: 63 8c 97 12  	beq	a5, s1, 0x80008468 <vsnprintf+0x328>
80008334: 13 06 0e 00  	mv	a2, t3
80008338: 93 0a 08 00  	mv	s5, a6
8000833c: e3 9a 07 e6  	bnez	a5, 0x800081b0 <vsnprintf+0x70>
80008340: 6f f0 df e9  	j	0x800081dc <vsnprintf+0x9c>
80008344: 93 88 86 00  	addi	a7, a3, 8
80008348: 63 84 0a 0e  	beqz	s5, 0x80008430 <vsnprintf+0x2f0>
8000834c: 03 b8 06 00  	ld	a6, 0(a3)
80008350: 63 46 08 0e  	bltz	a6, 0x8000843c <vsnprintf+0x2fc>
80008354: b3 47 a8 02  	<unknown>
80008358: 63 82 07 14  	beqz	a5, 0x8000849c <vsnprintf+0x35c>
8000835c: 93 06 10 00  	li	a3, 1
80008360: b3 c7 a7 02  	<unknown>
80008364: 93 86 16 00  	addi	a3, a3, 1
80008368: e3 9c 07 fe  	bnez	a5, 0x80008360 <vsnprintf+0x220>
8000836c: 9b 87 f6 ff  	addiw	a5, a3, -1
80008370: 13 84 06 00  	mv	s0, a3
80008374: 63 ca 07 02  	bltz	a5, 0x800083a8 <vsnprintf+0x268>
80008378: 13 0b 17 00  	addi	s6, a4, 1
8000837c: b3 06 fb 00  	add	a3, s6, a5
80008380: 63 fc b6 00  	bgeu	a3, a1, 0x80008398 <vsnprintf+0x258>
80008384: b3 66 a8 02  	<unknown>
80008388: b3 0a f7 00  	add	s5, a4, a5
8000838c: b3 8a 5e 01  	add	s5, t4, s5
80008390: 9b 86 06 03  	addiw	a3, a3, 48
80008394: 23 80 da 00  	sb	a3, 0(s5)
80008398: 93 87 f7 ff  	addi	a5, a5, -1
8000839c: 93 96 07 02  	slli	a3, a5, 32
800083a0: 33 48 a8 02  	<unknown>
800083a4: e3 dc 06 fc  	bgez	a3, 0x8000837c <vsnprintf+0x23c>
800083a8: 83 47 16 00  	lbu	a5, 1(a2)
800083ac: 33 07 87 00  	add	a4, a4, s0
800083b0: 13 06 0e 00  	mv	a2, t3
800083b4: 93 86 08 00  	mv	a3, a7
800083b8: 13 04 00 00  	li	s0, 0
800083bc: 93 0a 00 00  	li	s5, 0
800083c0: 13 08 00 00  	li	a6, 0
800083c4: e3 96 07 de  	bnez	a5, 0x800081b0 <vsnprintf+0x70>
800083c8: 6f f0 5f e1  	j	0x800081dc <vsnprintf+0x9c>
800083cc: 13 08 17 00  	addi	a6, a4, 1
800083d0: 63 7a b8 00  	bgeu	a6, a1, 0x800083e4 <vsnprintf+0x2a4>
800083d4: 83 a7 06 00  	lw	a5, 0(a3)
800083d8: 33 87 ee 00  	add	a4, t4, a4
800083dc: 93 86 86 00  	addi	a3, a3, 8
800083e0: 23 00 f7 00  	sb	a5, 0(a4)
800083e4: 83 47 16 00  	lbu	a5, 1(a2)
800083e8: 13 07 08 00  	mv	a4, a6
800083ec: 13 06 0e 00  	mv	a2, t3
800083f0: 93 0a 00 00  	li	s5, 0
800083f4: 13 08 00 00  	li	a6, 0
800083f8: e3 9c 07 da  	bnez	a5, 0x800081b0 <vsnprintf+0x70>
800083fc: 6f f0 1f de  	j	0x800081dc <vsnprintf+0x9c>
80008400: 83 47 16 00  	lbu	a5, 1(a2)
80008404: 13 06 0e 00  	mv	a2, t3
80008408: e3 94 07 da  	bnez	a5, 0x800081b0 <vsnprintf+0x70>
8000840c: 6f f0 1f dd  	j	0x800081dc <vsnprintf+0x9c>
80008410: 83 47 16 00  	lbu	a5, 1(a2)
80008414: 13 08 10 00  	li	a6, 1
80008418: 13 06 0e 00  	mv	a2, t3
8000841c: e3 9a 07 d8  	bnez	a5, 0x800081b0 <vsnprintf+0x70>
80008420: 6f f0 df db  	j	0x800081dc <vsnprintf+0x9c>
80008424: 33 87 ee 00  	add	a4, t4, a4
80008428: 23 00 07 00  	sb	zero, 0(a4)
8000842c: 6f f0 5f dc  	j	0x800081f0 <vsnprintf+0xb0>
80008430: e3 1e 04 f0  	bnez	s0, 0x8000834c <vsnprintf+0x20c>
80008434: 03 a8 06 00  	lw	a6, 0(a3)
80008438: e3 5e 08 f0  	bgez	a6, 0x80008354 <vsnprintf+0x214>
8000843c: 93 07 17 00  	addi	a5, a4, 1
80008440: 33 08 00 41  	neg	a6, a6
80008444: 63 fc b7 02  	bgeu	a5, a1, 0x8000847c <vsnprintf+0x33c>
80008448: 33 87 ee 00  	add	a4, t4, a4
8000844c: 23 00 47 01  	sb	s4, 0(a4)
80008450: 13 87 07 00  	mv	a4, a5
80008454: 6f f0 1f f0  	j	0x80008354 <vsnprintf+0x214>
80008458: 03 bc 06 00  	ld	s8, 0(a3)
8000845c: 93 0b f0 00  	li	s7, 15
80008460: 93 86 07 00  	mv	a3, a5
80008464: 6f f0 df de  	j	0x80008250 <vsnprintf+0x110>
80008468: 83 47 26 00  	lbu	a5, 2(a2)
8000846c: 13 04 08 00  	mv	s0, a6
80008470: 13 06 26 00  	addi	a2, a2, 2
80008474: e3 9e 07 d2  	bnez	a5, 0x800081b0 <vsnprintf+0x70>
80008478: 6f f0 5f d6  	j	0x800081dc <vsnprintf+0x9c>
8000847c: 13 87 07 00  	mv	a4, a5
80008480: 6f f0 5f ed  	j	0x80008354 <vsnprintf+0x214>
80008484: 13 07 00 00  	li	a4, 0
80008488: 13 05 00 00  	li	a0, 0
8000848c: 63 7a b7 02  	bgeu	a4, a1, 0x800084c0 <vsnprintf+0x380>
80008490: 33 87 ee 00  	add	a4, t4, a4
80008494: 23 00 07 00  	sb	zero, 0(a4)
80008498: 67 80 00 00  	ret
8000849c: 13 04 10 00  	li	s0, 1
800084a0: 93 07 00 00  	li	a5, 0
800084a4: 6f f0 5f ed  	j	0x80008378 <vsnprintf+0x238>
800084a8: 83 47 16 00  	lbu	a5, 1(a2)
800084ac: 93 0a 00 00  	li	s5, 0
800084b0: 13 06 0e 00  	mv	a2, t3
800084b4: 13 08 00 00  	li	a6, 0
800084b8: e3 9c 07 ce  	bnez	a5, 0x800081b0 <vsnprintf+0x70>
800084bc: 6f f0 1f d2  	j	0x800081dc <vsnprintf+0x9c>
800084c0: 63 88 05 00  	beqz	a1, 0x800084d0 <vsnprintf+0x390>
800084c4: b3 85 be 00  	add	a1, t4, a1
800084c8: a3 8f 05 fe  	sb	zero, -1(a1)
800084cc: 67 80 00 00  	ret
800084d0: 67 80 00 00  	ret

00000000800084d4 <snprintf>:
800084d4: 13 01 01 fb  	addi	sp, sp, -80
800084d8: 13 03 81 02  	addi	t1, sp, 40
800084dc: 23 34 d1 02  	sd	a3, 40(sp)
800084e0: 93 06 03 00  	mv	a3, t1
800084e4: 23 3c 11 00  	sd	ra, 24(sp)
800084e8: 23 38 e1 02  	sd	a4, 48(sp)
800084ec: 23 3c f1 02  	sd	a5, 56(sp)
800084f0: 23 30 01 05  	sd	a6, 64(sp)
800084f4: 23 34 11 05  	sd	a7, 72(sp)
800084f8: 23 34 61 00  	sd	t1, 8(sp)
800084fc: ef f0 5f c4  	jal	0x80008140 <vsnprintf>
80008500: 83 30 81 01  	ld	ra, 24(sp)
80008504: 13 01 01 05  	addi	sp, sp, 80
80008508: 67 80 00 00  	ret

000000008000850c <memcpy>:
8000850c: b3 67 b5 00  	or	a5, a0, a1
80008510: 13 f7 77 00  	andi	a4, a5, 7
80008514: 93 07 05 00  	mv	a5, a0
80008518: 63 1e 07 02  	bnez	a4, 0x80008554 <memcpy+0x48>
8000851c: 13 08 96 ff  	addi	a6, a2, -7
80008520: 33 08 05 01  	add	a6, a0, a6
80008524: 63 78 05 03  	bgeu	a0, a6, 0x80008554 <memcpy+0x48>
80008528: 13 87 05 00  	mv	a4, a1
8000852c: 83 36 07 00  	ld	a3, 0(a4)
80008530: 93 87 87 00  	addi	a5, a5, 8
80008534: 13 07 87 00  	addi	a4, a4, 8
80008538: 23 bc d7 fe  	sd	a3, -8(a5)
8000853c: e3 e8 07 ff  	bltu	a5, a6, 0x8000852c <memcpy+0x20>
80008540: 93 07 86 ff  	addi	a5, a2, -8
80008544: 93 f7 87 ff  	andi	a5, a5, -8
80008548: 93 87 87 00  	addi	a5, a5, 8
8000854c: b3 85 f5 00  	add	a1, a1, a5
80008550: b3 07 f5 00  	add	a5, a0, a5
80008554: 33 06 c5 00  	add	a2, a0, a2
80008558: 63 f0 c7 02  	bgeu	a5, a2, 0x80008578 <memcpy+0x6c>
8000855c: 33 06 f6 40  	sub	a2, a2, a5
80008560: 33 87 c5 00  	add	a4, a1, a2
80008564: 83 c6 05 00  	lbu	a3, 0(a1)
80008568: 93 85 15 00  	addi	a1, a1, 1
8000856c: 93 87 17 00  	addi	a5, a5, 1
80008570: a3 8f d7 fe  	sb	a3, -1(a5)
80008574: e3 98 e5 fe  	bne	a1, a4, 0x80008564 <memcpy+0x58>
80008578: 67 80 00 00  	ret

000000008000857c <memset>:
8000857c: b3 67 c5 00  	or	a5, a0, a2
80008580: 93 f7 77 00  	andi	a5, a5, 7
80008584: 33 06 c5 00  	add	a2, a0, a2
80008588: 93 f5 f5 0f  	andi	a1, a1, 255
8000858c: 63 8e 07 00  	beqz	a5, 0x800085a8 <memset+0x2c>
80008590: 93 07 05 00  	mv	a5, a0
80008594: 63 72 c5 04  	bgeu	a0, a2, 0x800085d8 <memset+0x5c>
80008598: 93 87 17 00  	addi	a5, a5, 1
8000859c: a3 8f b7 fe  	sb	a1, -1(a5)
800085a0: e3 1c f6 fe  	bne	a2, a5, 0x80008598 <memset+0x1c>
800085a4: 67 80 00 00  	ret
800085a8: 93 97 85 00  	slli	a5, a1, 8
800085ac: b3 e5 b7 00  	or	a1, a5, a1
800085b0: 93 97 05 01  	slli	a5, a1, 16
800085b4: b3 e7 b7 00  	or	a5, a5, a1
800085b8: 93 95 07 02  	slli	a1, a5, 32
800085bc: b3 e5 f5 00  	or	a1, a1, a5
800085c0: e3 72 c5 fe  	bgeu	a0, a2, 0x800085a4 <memset+0x28>
800085c4: 93 07 05 00  	mv	a5, a0
800085c8: 93 87 87 00  	addi	a5, a5, 8
800085cc: 23 bc b7 fe  	sd	a1, -8(a5)
800085d0: e3 ec c7 fe  	bltu	a5, a2, 0x800085c8 <memset+0x4c>
800085d4: 67 80 00 00  	ret
800085d8: 67 80 00 00  	ret

00000000800085dc <strlen>:
800085dc: 83 47 05 00  	lbu	a5, 0(a0)
800085e0: 63 8e 07 00  	beqz	a5, 0x800085fc <strlen+0x20>
800085e4: 93 07 05 00  	mv	a5, a0
800085e8: 03 c7 17 00  	lbu	a4, 1(a5)
800085ec: 93 87 17 00  	addi	a5, a5, 1
800085f0: e3 1c 07 fe  	bnez	a4, 0x800085e8 <strlen+0xc>
800085f4: 33 85 a7 40  	sub	a0, a5, a0
800085f8: 67 80 00 00  	ret
800085fc: 13 05 00 00  	li	a0, 0
80008600: 67 80 00 00  	ret

0000000080008604 <strcmp>:
80008604: 83 47 05 00  	lbu	a5, 0(a0)
80008608: 93 85 15 00  	addi	a1, a1, 1
8000860c: 13 05 15 00  	addi	a0, a0, 1
80008610: 03 c7 f5 ff  	lbu	a4, -1(a1)
80008614: 63 8a 07 00  	beqz	a5, 0x80008628 <strcmp+0x24>
80008618: e3 86 e7 fe  	beq	a5, a4, 0x80008604 <strcmp>
8000861c: 1b 85 07 00  	sext.w	a0, a5
80008620: 3b 05 e5 40  	subw	a0, a0, a4
80008624: 67 80 00 00  	ret
80008628: 13 05 00 00  	li	a0, 0
8000862c: 6f f0 5f ff  	j	0x80008620 <strcmp+0x1c>

0000000080008630 <strcpy>:
80008630: 93 07 05 00  	mv	a5, a0
80008634: 03 c7 05 00  	lbu	a4, 0(a1)
80008638: 93 87 17 00  	addi	a5, a5, 1
8000863c: 93 85 15 00  	addi	a1, a1, 1
80008640: a3 8f e7 fe  	sb	a4, -1(a5)
80008644: e3 18 07 fe  	bnez	a4, 0x80008634 <strcpy+0x4>
80008648: 67 80 00 00  	ret

000000008000864c <atol>:
8000864c: 03 47 05 00  	lbu	a4, 0(a0)
80008650: 93 06 00 02  	li	a3, 32
80008654: 93 07 05 00  	mv	a5, a0
80008658: 63 18 d7 00  	bne	a4, a3, 0x80008668 <atol+0x1c>
8000865c: 03 c7 17 00  	lbu	a4, 1(a5)
80008660: 93 87 17 00  	addi	a5, a5, 1
80008664: e3 0c d7 fe  	beq	a4, a3, 0x8000865c <atol+0x10>
80008668: 93 06 d0 02  	li	a3, 45
8000866c: 63 00 d7 06  	beq	a4, a3, 0x800086cc <atol+0x80>
80008670: 93 06 b0 02  	li	a3, 43
80008674: 63 00 d7 04  	beq	a4, a3, 0x800086b4 <atol+0x68>
80008678: 83 c6 07 00  	lbu	a3, 0(a5)
8000867c: 93 05 00 00  	li	a1, 0
80008680: 63 82 06 04  	beqz	a3, 0x800086c4 <atol+0x78>
80008684: 13 05 00 00  	li	a0, 0
80008688: 93 87 17 00  	addi	a5, a5, 1
8000868c: 1b 86 06 fd  	addiw	a2, a3, -48
80008690: 13 17 25 00  	slli	a4, a0, 2
80008694: 83 c6 07 00  	lbu	a3, 0(a5)
80008698: 33 05 a7 00  	add	a0, a4, a0
8000869c: 13 15 15 00  	slli	a0, a0, 1
800086a0: 33 05 a6 00  	add	a0, a2, a0
800086a4: e3 92 06 fe  	bnez	a3, 0x80008688 <atol+0x3c>
800086a8: 63 80 05 02  	beqz	a1, 0x800086c8 <atol+0x7c>
800086ac: 33 05 a0 40  	neg	a0, a0
800086b0: 67 80 00 00  	ret
800086b4: 83 c6 17 00  	lbu	a3, 1(a5)
800086b8: 93 05 00 00  	li	a1, 0
800086bc: 93 87 17 00  	addi	a5, a5, 1
800086c0: e3 92 06 fc  	bnez	a3, 0x80008684 <atol+0x38>
800086c4: 13 05 00 00  	li	a0, 0
800086c8: 67 80 00 00  	ret
800086cc: 83 c6 17 00  	lbu	a3, 1(a5)
800086d0: 93 05 10 00  	li	a1, 1
800086d4: 93 87 17 00  	addi	a5, a5, 1
800086d8: e3 96 06 fa  	bnez	a3, 0x80008684 <atol+0x38>
800086dc: 13 05 00 00  	li	a0, 0
800086e0: 6f f0 9f fe  	j	0x800086c8 <atol+0x7c>
